;
; File generated by cc65 v 2.18 - N/A
;
	.fopt		compiler,"cc65 v 2.18 - N/A"
	.setcpu		"6502"
	.smart		on
	.autoimport	on
	.case		on
	.debuginfo	off
	.importzp	sp, sreg, regsave, regbank
	.importzp	tmp1, tmp2, tmp3, tmp4, ptr1, ptr2, ptr3, ptr4
	.macpack	longbranch
	.forceimport	__STARTUP__
	.import		_pal_bg
	.import		_pal_spr
	.import		_ppu_wait_nmi
	.import		_ppu_off
	.import		_ppu_on_all
	.import		_oam_clear
	.import		_oam_spr
	.import		_oam_meta_spr
	.import		_oam_set
	.import		_pad_poll
	.import		_split
	.import		_bank_spr
	.import		_vram_adr
	.import		_vram_put
	.import		_set_vram_buffer
	.import		_one_vram_buffer
	.import		_multi_vram_buffer_horz
	.import		_clear_vram_buffer
	.import		_get_pad_new
	.import		_set_scroll_x
	.import		_set_scroll_y
	.import		_flush_vram_update2
	.import		_read_powerpad
	.export		_powerpad_cur
	.export		_powerpad_old
	.export		_powerpad_new
	.export		_debug_controller
	.export		_debug_controller_new
	.export		_temp_int
	.export		_last_step
	.export		_steps
	.export		_ones_step
	.export		_tens_step
	.export		_hundreds_step
	.export		_thousands_step
	.export		_ten_thousands_step
	.export		_steps_per_minute
	.export		_hundreds_spm
	.export		_tens_spm
	.export		_ones_spm
	.export		_seconds
	.export		_ones_seconds
	.export		_tens_seconds
	.export		_ones_minutes
	.export		_tens_minutes
	.export		_ones_hours
	.export		_tens_hours
	.export		_frame_counter
	.export		_step_button_lockout
	.export		_motion_counter
	.export		_time_since_button_press
	.export		_motion
	.export		_was_running
	.export		_was_walking
	.export		_index
	.export		_mph
	.export		_sprite_timer
	.export		_sprite_frame_counter
	.export		_title_animation_frame
	.export		_title_frame_counter
	.export		_scroll_x
	.export		_largeindex
	.export		_pointer
	.export		_scroll_timer
	.export		_game_mode
	.export		_selected_option
	.export		_race_type
	.export		_add_step
	.export		_add_second
	.export		_initial_steps_conversion
	.export		_initial_timer_conversion
	.export		_check_motion
	.export		_load_room
	.export		_draw_sprite
	.export		_draw_hud
	.export		_process_controller
	.export		_set_sprite_zero
	.export		_update_steps_per_minute
	.export		_load_title
	.export		_init_mode_game
	.export		_init_options
	.export		_draw_options_screen
	.export		_set_signature_sprite
	.export		_trackflowers
	.export		_title
	.export		_marathon_man_run1_data
	.export		_marathon_man_run2_data
	.export		_marathon_man_run3_data
	.export		_marathon_man_run4_data
	.export		_marathon_man_run5_data
	.export		_marathon_man_run6_data
	.export		_marathon_man_walk1_data
	.export		_marathon_man_walk2_data
	.export		_marathon_man_walk3_data
	.export		_marathon_man_walk4_data
	.export		_marathon_man_cursor1_data
	.export		_marathon_man_cursor2_data
	.export		_marathon_man_cursor3_data
	.export		_marathon_man_1_data
	.export		_marathon_man_2_data
	.export		_marathon_man_3_data
	.export		_marathon_man_4_data
	.export		_marathon_man_5_data
	.export		_marathon_man_6_data
	.export		_marathon_man_7_data
	.export		_marathon_man_8_data
	.export		_marathon_man_9_data
	.export		_marathon_man_10_data
	.export		_marathon_man_11_data
	.export		_marathon_man_12_data
	.export		_marathon_man_alan0_data
	.export		_marathon_man_alan1_data
	.export		_marathon_man_alan2_data
	.export		_marathon_man_alan3_data
	.export		_marathon_man_alan4_data
	.export		_marathon_man_alan5_data
	.export		_marathon_man_alan6_data
	.export		_marathon_man_alan7_data
	.export		_marathon_man_alan8_data
	.export		_marathon_man_alan9_data
	.export		_marathon_man_alan10_data
	.export		_marathon_man_alan11_data
	.export		_marathon_man_alan12_data
	.export		_marathon_man_alan13_data
	.export		_marathon_man_alan14_data
	.export		_marathon_man_alan15_data
	.export		_marathon_man_alan16_data
	.export		_marathon_man_alan17_data
	.export		_marathon_man_alan18_data
	.export		_marathon_man_alan19_data
	.export		_marathon_man_alan20_data
	.export		_marathon_man_alan21_data
	.export		_marathon_man_alan22_data
	.export		_marathon_man_alan23_data
	.export		_marathon_man_alan24_data
	.export		_marathon_man_alan25_data
	.export		_marathon_man_alan26_data
	.export		_marathon_man_alan27_data
	.export		_marathon_man_alan28_data
	.export		_marathon_man_alan29_data
	.export		_marathon_man_alan30_data
	.export		_marathon_man_alan31_data
	.export		_marathon_man_alan32_data
	.export		_marathon_man_alan33_data
	.export		_marathon_man_alan44_data
	.export		_marathon_man_alan45_data
	.export		_marathon_man_alan46_data
	.export		_marathon_man_alan47_data
	.export		_marathon_man_alan48_data
	.export		_marathon_man_alan49_data
	.export		_marathon_man_alan50_data
	.export		_marathon_man_alan51_data
	.export		_marathon_man_alan52_data
	.export		_marathon_man_alan53_data
	.export		_marathon_man_alan54_data
	.export		_marathon_man_alan55_data
	.export		_marathon_man_alan56_data
	.export		_marathon_man_alan57_data
	.export		_marathon_man_alan58_data
	.export		_marathon_man_alan59_data
	.export		_marathon_man_alan60_data
	.export		_marathon_man_alan61_data
	.export		_marathon_man_alan62_data
	.export		_marathon_man_alan63_data
	.export		_marathon_man_alan64_data
	.export		_palette_sprites
	.export		_palette_bg
	.export		_process_powerpad
	.export		_main
	.export		_clear_background

.segment	"RODATA"

_trackflowers:
	.byte	$00
	.byte	$00
	.byte	$00
	.byte	$00
	.byte	$00
	.byte	$00
	.byte	$00
	.byte	$00
	.byte	$00
	.byte	$00
	.byte	$00
	.byte	$00
	.byte	$00
	.byte	$00
	.byte	$00
	.byte	$00
	.byte	$00
	.byte	$00
	.byte	$00
	.byte	$00
	.byte	$00
	.byte	$00
	.byte	$00
	.byte	$00
	.byte	$00
	.byte	$00
	.byte	$00
	.byte	$00
	.byte	$00
	.byte	$00
	.byte	$00
	.byte	$00
	.byte	$00
	.byte	$00
	.byte	$00
	.byte	$00
	.byte	$00
	.byte	$00
	.byte	$00
	.byte	$00
	.byte	$00
	.byte	$00
	.byte	$00
	.byte	$00
	.byte	$00
	.byte	$00
	.byte	$00
	.byte	$00
	.byte	$00
	.byte	$00
	.byte	$00
	.byte	$00
	.byte	$00
	.byte	$00
	.byte	$00
	.byte	$00
	.byte	$00
	.byte	$00
	.byte	$00
	.byte	$00
	.byte	$00
	.byte	$00
	.byte	$00
	.byte	$00
	.byte	$00
	.byte	$00
	.byte	$54
	.byte	$49
	.byte	$4D
	.byte	$45
	.byte	$3A
	.byte	$00
	.byte	$00
	.byte	$00
	.byte	$00
	.byte	$00
	.byte	$00
	.byte	$00
	.byte	$00
	.byte	$00
	.byte	$00
	.byte	$4D
	.byte	$50
	.byte	$48
	.byte	$3A
	.byte	$00
	.byte	$00
	.byte	$00
	.byte	$00
	.byte	$00
	.byte	$00
	.byte	$00
	.byte	$00
	.byte	$00
	.byte	$00
	.byte	$00
	.byte	$00
	.byte	$00
	.byte	$00
	.byte	$00
	.byte	$00
	.byte	$00
	.byte	$00
	.byte	$00
	.byte	$00
	.byte	$00
	.byte	$00
	.byte	$00
	.byte	$00
	.byte	$00
	.byte	$00
	.byte	$00
	.byte	$00
	.byte	$00
	.byte	$00
	.byte	$00
	.byte	$00
	.byte	$00
	.byte	$00
	.byte	$00
	.byte	$00
	.byte	$00
	.byte	$00
	.byte	$00
	.byte	$00
	.byte	$00
	.byte	$00
	.byte	$00
	.byte	$00
	.byte	$00
	.byte	$53
	.byte	$54
	.byte	$45
	.byte	$50
	.byte	$53
	.byte	$3A
	.byte	$00
	.byte	$00
	.byte	$00
	.byte	$00
	.byte	$00
	.byte	$00
	.byte	$00
	.byte	$00
	.byte	$00
	.byte	$4B
	.byte	$43
	.byte	$41
	.byte	$4C
	.byte	$3A
	.byte	$00
	.byte	$00
	.byte	$00
	.byte	$00
	.byte	$00
	.byte	$00
	.byte	$00
	.byte	$00
	.byte	$00
	.byte	$00
	.byte	$00
	.byte	$00
	.byte	$00
	.byte	$00
	.byte	$00
	.byte	$00
	.byte	$00
	.byte	$00
	.byte	$00
	.byte	$00
	.byte	$00
	.byte	$00
	.byte	$00
	.byte	$00
	.byte	$00
	.byte	$00
	.byte	$00
	.byte	$00
	.byte	$00
	.byte	$00
	.byte	$00
	.byte	$00
	.byte	$00
	.byte	$00
	.byte	$00
	.byte	$00
	.byte	$00
	.byte	$00
	.byte	$00
	.byte	$00
	.byte	$00
	.byte	$00
	.byte	$00
	.byte	$00
	.byte	$53
	.byte	$50
	.byte	$4D
	.byte	$3A
	.byte	$00
	.byte	$00
	.byte	$00
	.byte	$00
	.byte	$00
	.byte	$00
	.byte	$00
	.byte	$00
	.byte	$00
	.byte	$00
	.byte	$00
	.byte	$53
	.byte	$43
	.byte	$4F
	.byte	$52
	.byte	$45
	.byte	$3A
	.byte	$00
	.byte	$00
	.byte	$00
	.byte	$00
	.byte	$00
	.byte	$00
	.byte	$00
	.byte	$00
	.byte	$00
	.byte	$00
	.byte	$00
	.byte	$00
	.byte	$00
	.byte	$00
	.byte	$00
	.byte	$00
	.byte	$00
	.byte	$00
	.byte	$00
	.byte	$00
	.byte	$00
	.byte	$00
	.byte	$00
	.byte	$00
	.byte	$00
	.byte	$00
	.byte	$00
	.byte	$00
	.byte	$00
	.byte	$00
	.byte	$00
	.byte	$00
	.byte	$00
	.byte	$00
	.byte	$00
	.byte	$00
	.byte	$00
	.byte	$00
	.byte	$00
	.byte	$00
	.byte	$00
	.byte	$00
	.byte	$00
	.byte	$5E
	.byte	$5F
	.byte	$00
	.byte	$00
	.byte	$00
	.byte	$00
	.byte	$00
	.byte	$00
	.byte	$00
	.byte	$00
	.byte	$00
	.byte	$00
	.byte	$00
	.byte	$00
	.byte	$00
	.byte	$00
	.byte	$00
	.byte	$00
	.byte	$00
	.byte	$00
	.byte	$00
	.byte	$00
	.byte	$00
	.byte	$00
	.byte	$00
	.byte	$00
	.byte	$00
	.byte	$7E
	.byte	$7F
	.byte	$00
	.byte	$00
	.byte	$00
	.byte	$00
	.byte	$6C
	.byte	$6D
	.byte	$6D
	.byte	$6D
	.byte	$6D
	.byte	$6C
	.byte	$6D
	.byte	$6D
	.byte	$6D
	.byte	$6D
	.byte	$6C
	.byte	$6D
	.byte	$6D
	.byte	$6D
	.byte	$6D
	.byte	$6C
	.byte	$6D
	.byte	$6D
	.byte	$6D
	.byte	$6D
	.byte	$6C
	.byte	$6D
	.byte	$6D
	.byte	$6D
	.byte	$6D
	.byte	$6C
	.byte	$5D
	.byte	$00
	.byte	$00
	.byte	$00
	.byte	$00
	.byte	$00
	.byte	$00
	.byte	$00
	.byte	$00
	.byte	$00
	.byte	$00
	.byte	$00
	.byte	$00
	.byte	$00
	.byte	$00
	.byte	$00
	.byte	$00
	.byte	$00
	.byte	$00
	.byte	$00
	.byte	$00
	.byte	$00
	.byte	$00
	.byte	$00
	.byte	$00
	.byte	$00
	.byte	$00
	.byte	$00
	.byte	$00
	.byte	$00
	.byte	$00
	.byte	$00
	.byte	$00
	.byte	$00
	.byte	$00
	.byte	$00
	.byte	$00
	.byte	$00
	.byte	$00
	.byte	$00
	.byte	$00
	.byte	$00
	.byte	$00
	.byte	$00
	.byte	$00
	.byte	$00
	.byte	$00
	.byte	$00
	.byte	$00
	.byte	$00
	.byte	$00
	.byte	$00
	.byte	$00
	.byte	$00
	.byte	$00
	.byte	$00
	.byte	$00
	.byte	$00
	.byte	$00
	.byte	$00
	.byte	$00
	.byte	$00
	.byte	$00
	.byte	$00
	.byte	$00
	.byte	$00
	.byte	$00
	.byte	$00
	.byte	$00
	.byte	$00
	.byte	$00
	.byte	$00
	.byte	$00
	.byte	$00
	.byte	$00
	.byte	$00
	.byte	$00
	.byte	$00
	.byte	$00
	.byte	$00
	.byte	$00
	.byte	$00
	.byte	$00
	.byte	$00
	.byte	$00
	.byte	$00
	.byte	$00
	.byte	$00
	.byte	$00
	.byte	$00
	.byte	$00
	.byte	$00
	.byte	$00
	.byte	$00
	.byte	$00
	.byte	$00
	.byte	$00
	.byte	$00
	.byte	$00
	.byte	$00
	.byte	$00
	.byte	$00
	.byte	$00
	.byte	$00
	.byte	$00
	.byte	$00
	.byte	$00
	.byte	$00
	.byte	$00
	.byte	$00
	.byte	$00
	.byte	$00
	.byte	$00
	.byte	$00
	.byte	$00
	.byte	$00
	.byte	$00
	.byte	$00
	.byte	$00
	.byte	$00
	.byte	$00
	.byte	$00
	.byte	$00
	.byte	$00
	.byte	$00
	.byte	$00
	.byte	$00
	.byte	$00
	.byte	$00
	.byte	$00
	.byte	$00
	.byte	$69
	.byte	$6A
	.byte	$6B
	.byte	$66
	.byte	$67
	.byte	$68
	.byte	$66
	.byte	$67
	.byte	$68
	.byte	$69
	.byte	$6A
	.byte	$6B
	.byte	$69
	.byte	$6A
	.byte	$6B
	.byte	$69
	.byte	$6A
	.byte	$6B
	.byte	$69
	.byte	$6A
	.byte	$6B
	.byte	$66
	.byte	$67
	.byte	$68
	.byte	$69
	.byte	$6A
	.byte	$6B
	.byte	$66
	.byte	$67
	.byte	$67
	.byte	$6A
	.byte	$6B
	.byte	$02
	.byte	$02
	.byte	$02
	.byte	$64
	.byte	$02
	.byte	$02
	.byte	$65
	.byte	$02
	.byte	$02
	.byte	$02
	.byte	$65
	.byte	$02
	.byte	$02
	.byte	$02
	.byte	$02
	.byte	$02
	.byte	$65
	.byte	$02
	.byte	$63
	.byte	$65
	.byte	$02
	.byte	$02
	.byte	$02
	.byte	$02
	.byte	$63
	.byte	$02
	.byte	$02
	.byte	$02
	.byte	$02
	.byte	$02
	.byte	$02
	.byte	$63
	.byte	$02
	.byte	$65
	.byte	$02
	.byte	$02
	.byte	$02
	.byte	$02
	.byte	$02
	.byte	$02
	.byte	$02
	.byte	$02
	.byte	$02
	.byte	$02
	.byte	$02
	.byte	$64
	.byte	$64
	.byte	$64
	.byte	$02
	.byte	$02
	.byte	$02
	.byte	$02
	.byte	$64
	.byte	$02
	.byte	$02
	.byte	$65
	.byte	$02
	.byte	$02
	.byte	$02
	.byte	$89
	.byte	$02
	.byte	$63
	.byte	$64
	.byte	$02
	.byte	$02
	.byte	$02
	.byte	$02
	.byte	$86
	.byte	$87
	.byte	$02
	.byte	$88
	.byte	$02
	.byte	$86
	.byte	$02
	.byte	$02
	.byte	$87
	.byte	$65
	.byte	$02
	.byte	$02
	.byte	$02
	.byte	$02
	.byte	$65
	.byte	$64
	.byte	$64
	.byte	$02
	.byte	$02
	.byte	$02
	.byte	$02
	.byte	$87
	.byte	$88
	.byte	$02
	.byte	$02
	.byte	$02
	.byte	$63
	.byte	$02
	.byte	$02
	.byte	$02
	.byte	$65
	.byte	$02
	.byte	$96
	.byte	$97
	.byte	$64
	.byte	$98
	.byte	$02
	.byte	$96
	.byte	$63
	.byte	$02
	.byte	$97
	.byte	$88
	.byte	$02
	.byte	$02
	.byte	$A3
	.byte	$A4
	.byte	$A4
	.byte	$A4
	.byte	$A4
	.byte	$A5
	.byte	$02
	.byte	$02
	.byte	$63
	.byte	$97
	.byte	$98
	.byte	$02
	.byte	$02
	.byte	$02
	.byte	$02
	.byte	$02
	.byte	$88
	.byte	$02
	.byte	$65
	.byte	$02
	.byte	$64
	.byte	$02
	.byte	$02
	.byte	$02
	.byte	$02
	.byte	$02
	.byte	$02
	.byte	$02
	.byte	$02
	.byte	$98
	.byte	$02
	.byte	$02
	.byte	$B3
	.byte	$B4
	.byte	$B5
	.byte	$B5
	.byte	$B4
	.byte	$B6
	.byte	$02
	.byte	$02
	.byte	$02
	.byte	$02
	.byte	$02
	.byte	$02
	.byte	$65
	.byte	$02
	.byte	$65
	.byte	$02
	.byte	$98
	.byte	$60
	.byte	$60
	.byte	$60
	.byte	$60
	.byte	$60
	.byte	$60
	.byte	$60
	.byte	$60
	.byte	$60
	.byte	$60
	.byte	$60
	.byte	$60
	.byte	$60
	.byte	$60
	.byte	$15
	.byte	$16
	.byte	$15
	.byte	$16
	.byte	$17
	.byte	$15
	.byte	$16
	.byte	$15
	.byte	$60
	.byte	$60
	.byte	$60
	.byte	$60
	.byte	$60
	.byte	$60
	.byte	$60
	.byte	$60
	.byte	$60
	.byte	$60
	.byte	$75
	.byte	$01
	.byte	$84
	.byte	$73
	.byte	$75
	.byte	$01
	.byte	$01
	.byte	$74
	.byte	$01
	.byte	$75
	.byte	$73
	.byte	$01
	.byte	$84
	.byte	$01
	.byte	$75
	.byte	$01
	.byte	$01
	.byte	$75
	.byte	$73
	.byte	$01
	.byte	$84
	.byte	$75
	.byte	$01
	.byte	$73
	.byte	$85
	.byte	$75
	.byte	$73
	.byte	$84
	.byte	$75
	.byte	$01
	.byte	$75
	.byte	$01
	.byte	$01
	.byte	$01
	.byte	$01
	.byte	$84
	.byte	$85
	.byte	$01
	.byte	$75
	.byte	$01
	.byte	$75
	.byte	$01
	.byte	$85
	.byte	$84
	.byte	$85
	.byte	$75
	.byte	$84
	.byte	$75
	.byte	$01
	.byte	$01
	.byte	$01
	.byte	$84
	.byte	$01
	.byte	$74
	.byte	$84
	.byte	$84
	.byte	$01
	.byte	$01
	.byte	$01
	.byte	$84
	.byte	$01
	.byte	$83
	.byte	$01
	.byte	$01
	.byte	$01
	.byte	$75
	.byte	$01
	.byte	$01
	.byte	$84
	.byte	$01
	.byte	$84
	.byte	$01
	.byte	$01
	.byte	$01
	.byte	$01
	.byte	$75
	.byte	$84
	.byte	$01
	.byte	$84
	.byte	$01
	.byte	$84
	.byte	$01
	.byte	$01
	.byte	$85
	.byte	$84
	.byte	$01
	.byte	$85
	.byte	$01
	.byte	$84
	.byte	$75
	.byte	$01
	.byte	$85
	.byte	$84
	.byte	$01
	.byte	$74
	.byte	$01
	.byte	$01
	.byte	$74
	.byte	$01
	.byte	$75
	.byte	$85
	.byte	$84
	.byte	$01
	.byte	$01
	.byte	$75
	.byte	$74
	.byte	$01
	.byte	$85
	.byte	$01
	.byte	$85
	.byte	$75
	.byte	$75
	.byte	$01
	.byte	$75
	.byte	$01
	.byte	$75
	.byte	$01
	.byte	$84
	.byte	$75
	.byte	$01
	.byte	$75
	.byte	$75
	.byte	$84
	.byte	$85
	.byte	$75
	.byte	$84
	.byte	$83
	.byte	$01
	.byte	$61
	.byte	$61
	.byte	$61
	.byte	$61
	.byte	$61
	.byte	$72
	.byte	$61
	.byte	$61
	.byte	$61
	.byte	$61
	.byte	$61
	.byte	$61
	.byte	$61
	.byte	$61
	.byte	$61
	.byte	$72
	.byte	$61
	.byte	$61
	.byte	$61
	.byte	$61
	.byte	$61
	.byte	$72
	.byte	$72
	.byte	$61
	.byte	$61
	.byte	$61
	.byte	$61
	.byte	$61
	.byte	$61
	.byte	$72
	.byte	$72
	.byte	$61
	.byte	$02
	.byte	$02
	.byte	$64
	.byte	$02
	.byte	$02
	.byte	$02
	.byte	$65
	.byte	$64
	.byte	$02
	.byte	$02
	.byte	$02
	.byte	$02
	.byte	$02
	.byte	$02
	.byte	$02
	.byte	$02
	.byte	$02
	.byte	$65
	.byte	$64
	.byte	$02
	.byte	$02
	.byte	$02
	.byte	$64
	.byte	$02
	.byte	$02
	.byte	$02
	.byte	$02
	.byte	$02
	.byte	$65
	.byte	$65
	.byte	$64
	.byte	$02
	.byte	$76
	.byte	$77
	.byte	$78
	.byte	$76
	.byte	$77
	.byte	$78
	.byte	$76
	.byte	$77
	.byte	$78
	.byte	$76
	.byte	$77
	.byte	$78
	.byte	$76
	.byte	$77
	.byte	$78
	.byte	$76
	.byte	$77
	.byte	$78
	.byte	$76
	.byte	$77
	.byte	$78
	.byte	$76
	.byte	$77
	.byte	$78
	.byte	$76
	.byte	$77
	.byte	$78
	.byte	$76
	.byte	$77
	.byte	$78
	.byte	$76
	.byte	$78
	.byte	$00
	.byte	$00
	.byte	$00
	.byte	$00
	.byte	$00
	.byte	$00
	.byte	$00
	.byte	$00
	.byte	$00
	.byte	$00
	.byte	$00
	.byte	$00
	.byte	$00
	.byte	$00
	.byte	$00
	.byte	$00
	.byte	$00
	.byte	$00
	.byte	$00
	.byte	$00
	.byte	$00
	.byte	$00
	.byte	$00
	.byte	$00
	.byte	$00
	.byte	$00
	.byte	$00
	.byte	$00
	.byte	$00
	.byte	$00
	.byte	$00
	.byte	$00
	.byte	$00
	.byte	$00
	.byte	$00
	.byte	$00
	.byte	$00
	.byte	$00
	.byte	$00
	.byte	$00
	.byte	$00
	.byte	$00
	.byte	$00
	.byte	$00
	.byte	$00
	.byte	$00
	.byte	$00
	.byte	$00
	.byte	$00
	.byte	$00
	.byte	$00
	.byte	$00
	.byte	$00
	.byte	$00
	.byte	$00
	.byte	$00
	.byte	$00
	.byte	$00
	.byte	$00
	.byte	$00
	.byte	$00
	.byte	$00
	.byte	$00
	.byte	$00
	.byte	$00
	.byte	$00
	.byte	$00
	.byte	$00
	.byte	$00
	.byte	$00
	.byte	$00
	.byte	$00
	.byte	$00
	.byte	$00
	.byte	$00
	.byte	$00
	.byte	$00
	.byte	$00
	.byte	$00
	.byte	$00
	.byte	$00
	.byte	$00
	.byte	$00
	.byte	$00
	.byte	$00
	.byte	$00
	.byte	$00
	.byte	$00
	.byte	$A0
	.byte	$A0
	.byte	$A0
	.byte	$A0
	.byte	$A0
	.byte	$A0
	.byte	$A0
	.byte	$A0
	.byte	$A6
	.byte	$E5
	.byte	$AF
	.byte	$FA
	.byte	$FA
	.byte	$BA
	.byte	$BC
	.byte	$EA
	.byte	$FF
	.byte	$FF
	.byte	$FF
	.byte	$FF
	.byte	$FF
	.byte	$FF
	.byte	$FF
	.byte	$FF
	.byte	$AF
	.byte	$AF
	.byte	$AF
	.byte	$AF
	.byte	$AF
	.byte	$AF
	.byte	$AF
	.byte	$AF
	.byte	$0F
	.byte	$0F
	.byte	$0F
	.byte	$0F
	.byte	$0F
	.byte	$0F
	.byte	$0F
	.byte	$0A
_title:
	.byte	$00
	.byte	$00
	.byte	$00
	.byte	$00
	.byte	$00
	.byte	$00
	.byte	$00
	.byte	$00
	.byte	$00
	.byte	$00
	.byte	$00
	.byte	$00
	.byte	$00
	.byte	$00
	.byte	$00
	.byte	$00
	.byte	$00
	.byte	$00
	.byte	$00
	.byte	$00
	.byte	$00
	.byte	$00
	.byte	$00
	.byte	$00
	.byte	$00
	.byte	$00
	.byte	$00
	.byte	$00
	.byte	$00
	.byte	$00
	.byte	$00
	.byte	$00
	.byte	$00
	.byte	$00
	.byte	$00
	.byte	$00
	.byte	$00
	.byte	$00
	.byte	$00
	.byte	$00
	.byte	$00
	.byte	$00
	.byte	$00
	.byte	$00
	.byte	$00
	.byte	$00
	.byte	$00
	.byte	$00
	.byte	$00
	.byte	$00
	.byte	$00
	.byte	$00
	.byte	$00
	.byte	$00
	.byte	$00
	.byte	$00
	.byte	$00
	.byte	$00
	.byte	$00
	.byte	$00
	.byte	$00
	.byte	$00
	.byte	$00
	.byte	$00
	.byte	$00
	.byte	$00
	.byte	$00
	.byte	$00
	.byte	$00
	.byte	$00
	.byte	$00
	.byte	$00
	.byte	$00
	.byte	$00
	.byte	$00
	.byte	$00
	.byte	$00
	.byte	$00
	.byte	$00
	.byte	$00
	.byte	$00
	.byte	$00
	.byte	$00
	.byte	$00
	.byte	$00
	.byte	$00
	.byte	$00
	.byte	$00
	.byte	$00
	.byte	$00
	.byte	$00
	.byte	$00
	.byte	$00
	.byte	$00
	.byte	$00
	.byte	$00
	.byte	$00
	.byte	$00
	.byte	$00
	.byte	$00
	.byte	$00
	.byte	$00
	.byte	$00
	.byte	$00
	.byte	$00
	.byte	$00
	.byte	$00
	.byte	$00
	.byte	$00
	.byte	$00
	.byte	$00
	.byte	$4D
	.byte	$5B
	.byte	$41
	.byte	$5B
	.byte	$52
	.byte	$5B
	.byte	$41
	.byte	$5B
	.byte	$54
	.byte	$5B
	.byte	$48
	.byte	$5B
	.byte	$4F
	.byte	$5B
	.byte	$4E
	.byte	$00
	.byte	$00
	.byte	$00
	.byte	$00
	.byte	$00
	.byte	$00
	.byte	$00
	.byte	$00
	.byte	$00
	.byte	$00
	.byte	$00
	.byte	$00
	.byte	$00
	.byte	$00
	.byte	$00
	.byte	$00
	.byte	$00
	.byte	$3F
	.byte	$3F
	.byte	$3F
	.byte	$3F
	.byte	$3F
	.byte	$3F
	.byte	$3F
	.byte	$3F
	.byte	$3F
	.byte	$3F
	.byte	$3F
	.byte	$3F
	.byte	$3F
	.byte	$3F
	.byte	$3F
	.byte	$00
	.byte	$00
	.byte	$00
	.byte	$00
	.byte	$9F
	.byte	$2F
	.byte	$8E
	.byte	$00
	.byte	$CF
	.byte	$00
	.byte	$00
	.byte	$BC
	.byte	$00
	.byte	$9F
	.byte	$8E
	.byte	$00
	.byte	$00
	.byte	$BC
	.byte	$00
	.byte	$9F
	.byte	$8E
	.byte	$00
	.byte	$00
	.byte	$BC
	.byte	$00
	.byte	$9F
	.byte	$2F
	.byte	$BF
	.byte	$00
	.byte	$9F
	.byte	$2F
	.byte	$8E
	.byte	$00
	.byte	$00
	.byte	$00
	.byte	$00
	.byte	$FD
	.byte	$CC
	.byte	$FE
	.byte	$00
	.byte	$FD
	.byte	$00
	.byte	$00
	.byte	$FD
	.byte	$00
	.byte	$FF
	.byte	$01
	.byte	$6F
	.byte	$00
	.byte	$FD
	.byte	$00
	.byte	$FF
	.byte	$01
	.byte	$6F
	.byte	$00
	.byte	$FD
	.byte	$00
	.byte	$FD
	.byte	$00
	.byte	$00
	.byte	$00
	.byte	$FD
	.byte	$CC
	.byte	$FE
	.byte	$00
	.byte	$00
	.byte	$00
	.byte	$00
	.byte	$FD
	.byte	$00
	.byte	$AF
	.byte	$00
	.byte	$FD
	.byte	$00
	.byte	$00
	.byte	$FD
	.byte	$00
	.byte	$FD
	.byte	$A6
	.byte	$A7
	.byte	$00
	.byte	$FD
	.byte	$00
	.byte	$FD
	.byte	$A6
	.byte	$A7
	.byte	$00
	.byte	$FD
	.byte	$00
	.byte	$FD
	.byte	$00
	.byte	$00
	.byte	$00
	.byte	$FD
	.byte	$00
	.byte	$AF
	.byte	$00
	.byte	$00
	.byte	$00
	.byte	$00
	.byte	$FF
	.byte	$2F
	.byte	$BF
	.byte	$00
	.byte	$FD
	.byte	$00
	.byte	$00
	.byte	$FD
	.byte	$00
	.byte	$FD
	.byte	$A8
	.byte	$AE
	.byte	$C3
	.byte	$FD
	.byte	$00
	.byte	$FD
	.byte	$A8
	.byte	$AE
	.byte	$C3
	.byte	$FD
	.byte	$00
	.byte	$FF
	.byte	$2F
	.byte	$AA
	.byte	$00
	.byte	$FF
	.byte	$2F
	.byte	$BF
	.byte	$00
	.byte	$00
	.byte	$00
	.byte	$00
	.byte	$FD
	.byte	$CC
	.byte	$FE
	.byte	$00
	.byte	$FD
	.byte	$00
	.byte	$00
	.byte	$FD
	.byte	$00
	.byte	$FD
	.byte	$C4
	.byte	$C5
	.byte	$C9
	.byte	$FD
	.byte	$00
	.byte	$FD
	.byte	$C4
	.byte	$C5
	.byte	$C9
	.byte	$FD
	.byte	$00
	.byte	$FD
	.byte	$00
	.byte	$00
	.byte	$00
	.byte	$FD
	.byte	$CC
	.byte	$FE
	.byte	$00
	.byte	$00
	.byte	$00
	.byte	$00
	.byte	$FD
	.byte	$00
	.byte	$FD
	.byte	$00
	.byte	$FD
	.byte	$00
	.byte	$00
	.byte	$FD
	.byte	$00
	.byte	$FD
	.byte	$00
	.byte	$CA
	.byte	$CB
	.byte	$FD
	.byte	$00
	.byte	$FD
	.byte	$00
	.byte	$CA
	.byte	$CB
	.byte	$FD
	.byte	$00
	.byte	$FD
	.byte	$00
	.byte	$00
	.byte	$00
	.byte	$FD
	.byte	$00
	.byte	$FD
	.byte	$00
	.byte	$00
	.byte	$00
	.byte	$00
	.byte	$FD
	.byte	$00
	.byte	$FD
	.byte	$00
	.byte	$FF
	.byte	$6F
	.byte	$00
	.byte	$FD
	.byte	$00
	.byte	$FD
	.byte	$00
	.byte	$CC
	.byte	$01
	.byte	$FE
	.byte	$00
	.byte	$FD
	.byte	$00
	.byte	$CC
	.byte	$01
	.byte	$FE
	.byte	$00
	.byte	$FD
	.byte	$00
	.byte	$00
	.byte	$00
	.byte	$FD
	.byte	$00
	.byte	$FD
	.byte	$00
	.byte	$00
	.byte	$00
	.byte	$00
	.byte	$AC
	.byte	$00
	.byte	$AB
	.byte	$00
	.byte	$8F
	.byte	$01
	.byte	$01
	.byte	$AF
	.byte	$00
	.byte	$AC
	.byte	$00
	.byte	$00
	.byte	$9E
	.byte	$AF
	.byte	$00
	.byte	$AC
	.byte	$00
	.byte	$00
	.byte	$9E
	.byte	$AF
	.byte	$00
	.byte	$8F
	.byte	$2F
	.byte	$AF
	.byte	$00
	.byte	$AC
	.byte	$00
	.byte	$AB
	.byte	$00
	.byte	$00
	.byte	$00
	.byte	$00
	.byte	$00
	.byte	$00
	.byte	$00
	.byte	$00
	.byte	$00
	.byte	$00
	.byte	$00
	.byte	$00
	.byte	$00
	.byte	$00
	.byte	$00
	.byte	$00
	.byte	$00
	.byte	$00
	.byte	$00
	.byte	$00
	.byte	$00
	.byte	$00
	.byte	$00
	.byte	$00
	.byte	$00
	.byte	$00
	.byte	$00
	.byte	$00
	.byte	$00
	.byte	$00
	.byte	$00
	.byte	$00
	.byte	$00
	.byte	$00
	.byte	$69
	.byte	$6A
	.byte	$6B
	.byte	$67
	.byte	$68
	.byte	$69
	.byte	$6A
	.byte	$6B
	.byte	$69
	.byte	$67
	.byte	$68
	.byte	$66
	.byte	$6A
	.byte	$6B
	.byte	$69
	.byte	$6A
	.byte	$6B
	.byte	$6A
	.byte	$6A
	.byte	$6A
	.byte	$68
	.byte	$69
	.byte	$6A
	.byte	$6B
	.byte	$6A
	.byte	$6B
	.byte	$69
	.byte	$6A
	.byte	$6B
	.byte	$69
	.byte	$6A
	.byte	$6B
	.byte	$02
	.byte	$02
	.byte	$02
	.byte	$02
	.byte	$02
	.byte	$02
	.byte	$02
	.byte	$65
	.byte	$02
	.byte	$02
	.byte	$02
	.byte	$02
	.byte	$65
	.byte	$02
	.byte	$02
	.byte	$63
	.byte	$65
	.byte	$02
	.byte	$02
	.byte	$02
	.byte	$02
	.byte	$64
	.byte	$02
	.byte	$63
	.byte	$02
	.byte	$02
	.byte	$63
	.byte	$02
	.byte	$02
	.byte	$63
	.byte	$02
	.byte	$02
	.byte	$02
	.byte	$63
	.byte	$65
	.byte	$02
	.byte	$88
	.byte	$02
	.byte	$64
	.byte	$02
	.byte	$02
	.byte	$02
	.byte	$02
	.byte	$02
	.byte	$02
	.byte	$02
	.byte	$02
	.byte	$02
	.byte	$02
	.byte	$02
	.byte	$02
	.byte	$02
	.byte	$02
	.byte	$02
	.byte	$02
	.byte	$64
	.byte	$02
	.byte	$02
	.byte	$02
	.byte	$02
	.byte	$02
	.byte	$02
	.byte	$89
	.byte	$02
	.byte	$02
	.byte	$02
	.byte	$02
	.byte	$02
	.byte	$98
	.byte	$02
	.byte	$02
	.byte	$63
	.byte	$02
	.byte	$02
	.byte	$63
	.byte	$02
	.byte	$02
	.byte	$63
	.byte	$65
	.byte	$02
	.byte	$02
	.byte	$02
	.byte	$02
	.byte	$87
	.byte	$02
	.byte	$02
	.byte	$02
	.byte	$64
	.byte	$02
	.byte	$02
	.byte	$02
	.byte	$02
	.byte	$63
	.byte	$02
	.byte	$02
	.byte	$02
	.byte	$02
	.byte	$02
	.byte	$02
	.byte	$02
	.byte	$64
	.byte	$02
	.byte	$02
	.byte	$63
	.byte	$63
	.byte	$64
	.byte	$02
	.byte	$65
	.byte	$02
	.byte	$02
	.byte	$02
	.byte	$02
	.byte	$64
	.byte	$97
	.byte	$02
	.byte	$97
	.byte	$02
	.byte	$64
	.byte	$02
	.byte	$02
	.byte	$02
	.byte	$02
	.byte	$02
	.byte	$63
	.byte	$02
	.byte	$02
	.byte	$02
	.byte	$02
	.byte	$02
	.byte	$02
	.byte	$63
	.byte	$02
	.byte	$02
	.byte	$65
	.byte	$65
	.byte	$02
	.byte	$02
	.byte	$02
	.byte	$02
	.byte	$02
	.byte	$63
	.byte	$02
	.byte	$02
	.byte	$65
	.byte	$02
	.byte	$02
	.byte	$02
	.byte	$02
	.byte	$02
	.byte	$02
	.byte	$02
	.byte	$FB
	.byte	$FC
	.byte	$02
	.byte	$65
	.byte	$02
	.byte	$02
	.byte	$02
	.byte	$65
	.byte	$63
	.byte	$60
	.byte	$60
	.byte	$60
	.byte	$60
	.byte	$60
	.byte	$60
	.byte	$60
	.byte	$60
	.byte	$60
	.byte	$60
	.byte	$60
	.byte	$60
	.byte	$60
	.byte	$60
	.byte	$60
	.byte	$60
	.byte	$60
	.byte	$60
	.byte	$60
	.byte	$60
	.byte	$60
	.byte	$60
	.byte	$60
	.byte	$60
	.byte	$60
	.byte	$60
	.byte	$60
	.byte	$60
	.byte	$60
	.byte	$60
	.byte	$60
	.byte	$60
	.byte	$01
	.byte	$73
	.byte	$01
	.byte	$01
	.byte	$73
	.byte	$85
	.byte	$73
	.byte	$01
	.byte	$73
	.byte	$01
	.byte	$73
	.byte	$01
	.byte	$73
	.byte	$85
	.byte	$01
	.byte	$73
	.byte	$73
	.byte	$01
	.byte	$73
	.byte	$01
	.byte	$84
	.byte	$85
	.byte	$01
	.byte	$73
	.byte	$01
	.byte	$01
	.byte	$73
	.byte	$85
	.byte	$01
	.byte	$01
	.byte	$73
	.byte	$73
	.byte	$01
	.byte	$85
	.byte	$73
	.byte	$73
	.byte	$01
	.byte	$84
	.byte	$85
	.byte	$01
	.byte	$01
	.byte	$73
	.byte	$73
	.byte	$01
	.byte	$01
	.byte	$84
	.byte	$85
	.byte	$01
	.byte	$01
	.byte	$73
	.byte	$01
	.byte	$01
	.byte	$01
	.byte	$75
	.byte	$85
	.byte	$01
	.byte	$75
	.byte	$01
	.byte	$85
	.byte	$73
	.byte	$73
	.byte	$73
	.byte	$01
	.byte	$01
	.byte	$01
	.byte	$01
	.byte	$73
	.byte	$01
	.byte	$01
	.byte	$01
	.byte	$84
	.byte	$85
	.byte	$73
	.byte	$01
	.byte	$73
	.byte	$01
	.byte	$73
	.byte	$01
	.byte	$75
	.byte	$85
	.byte	$01
	.byte	$01
	.byte	$73
	.byte	$01
	.byte	$01
	.byte	$01
	.byte	$84
	.byte	$85
	.byte	$01
	.byte	$73
	.byte	$85
	.byte	$85
	.byte	$85
	.byte	$73
	.byte	$73
	.byte	$85
	.byte	$74
	.byte	$01
	.byte	$01
	.byte	$73
	.byte	$01
	.byte	$73
	.byte	$01
	.byte	$84
	.byte	$85
	.byte	$01
	.byte	$01
	.byte	$73
	.byte	$01
	.byte	$01
	.byte	$84
	.byte	$85
	.byte	$73
	.byte	$01
	.byte	$73
	.byte	$73
	.byte	$01
	.byte	$73
	.byte	$84
	.byte	$85
	.byte	$01
	.byte	$01
	.byte	$73
	.byte	$85
	.byte	$01
	.byte	$01
	.byte	$85
	.byte	$85
	.byte	$61
	.byte	$61
	.byte	$61
	.byte	$62
	.byte	$61
	.byte	$61
	.byte	$61
	.byte	$61
	.byte	$72
	.byte	$61
	.byte	$61
	.byte	$61
	.byte	$61
	.byte	$61
	.byte	$61
	.byte	$72
	.byte	$61
	.byte	$61
	.byte	$61
	.byte	$62
	.byte	$61
	.byte	$61
	.byte	$61
	.byte	$61
	.byte	$61
	.byte	$61
	.byte	$61
	.byte	$62
	.byte	$61
	.byte	$72
	.byte	$61
	.byte	$72
	.byte	$02
	.byte	$64
	.byte	$02
	.byte	$02
	.byte	$02
	.byte	$02
	.byte	$02
	.byte	$02
	.byte	$02
	.byte	$02
	.byte	$02
	.byte	$02
	.byte	$02
	.byte	$02
	.byte	$02
	.byte	$02
	.byte	$02
	.byte	$02
	.byte	$02
	.byte	$02
	.byte	$02
	.byte	$02
	.byte	$02
	.byte	$02
	.byte	$02
	.byte	$02
	.byte	$02
	.byte	$02
	.byte	$02
	.byte	$02
	.byte	$02
	.byte	$63
	.byte	$76
	.byte	$77
	.byte	$77
	.byte	$78
	.byte	$79
	.byte	$F2
	.byte	$E7
	.byte	$DC
	.byte	$DC
	.byte	$E7
	.byte	$E7
	.byte	$DC
	.byte	$E7
	.byte	$DC
	.byte	$DC
	.byte	$E7
	.byte	$DC
	.byte	$E7
	.byte	$DC
	.byte	$E7
	.byte	$DC
	.byte	$E7
	.byte	$DC
	.byte	$DC
	.byte	$E7
	.byte	$DC
	.byte	$E1
	.byte	$5C
	.byte	$77
	.byte	$78
	.byte	$76
	.byte	$78
	.byte	$00
	.byte	$00
	.byte	$00
	.byte	$00
	.byte	$00
	.byte	$00
	.byte	$00
	.byte	$3B
	.byte	$32
	.byte	$30
	.byte	$32
	.byte	$36
	.byte	$00
	.byte	$41
	.byte	$4C
	.byte	$41
	.byte	$4E
	.byte	$00
	.byte	$3C
	.byte	$00
	.byte	$42
	.byte	$52
	.byte	$49
	.byte	$41
	.byte	$4E
	.byte	$00
	.byte	$00
	.byte	$00
	.byte	$00
	.byte	$00
	.byte	$00
	.byte	$00
	.byte	$00
	.byte	$00
	.byte	$00
	.byte	$00
	.byte	$00
	.byte	$00
	.byte	$00
	.byte	$00
	.byte	$00
	.byte	$00
	.byte	$00
	.byte	$00
	.byte	$00
	.byte	$00
	.byte	$00
	.byte	$00
	.byte	$00
	.byte	$00
	.byte	$00
	.byte	$00
	.byte	$00
	.byte	$00
	.byte	$00
	.byte	$00
	.byte	$00
	.byte	$00
	.byte	$00
	.byte	$00
	.byte	$00
	.byte	$00
	.byte	$00
	.byte	$00
	.byte	$00
	.byte	$50
	.byte	$50
	.byte	$50
	.byte	$50
	.byte	$50
	.byte	$50
	.byte	$50
	.byte	$45
	.byte	$55
	.byte	$55
	.byte	$55
	.byte	$55
	.byte	$55
	.byte	$55
	.byte	$55
	.byte	$44
	.byte	$55
	.byte	$55
	.byte	$55
	.byte	$55
	.byte	$55
	.byte	$55
	.byte	$55
	.byte	$A5
	.byte	$A5
	.byte	$A5
	.byte	$A5
	.byte	$A5
	.byte	$A5
	.byte	$A5
	.byte	$A5
	.byte	$AA
	.byte	$AB
	.byte	$AA
	.byte	$AA
	.byte	$A0
	.byte	$2B
	.byte	$8F
	.byte	$AE
	.byte	$FF
	.byte	$FF
	.byte	$FF
	.byte	$FF
	.byte	$FF
	.byte	$FF
	.byte	$FF
	.byte	$FF
	.byte	$AF
	.byte	$AF
	.byte	$AF
	.byte	$AF
	.byte	$AF
	.byte	$AF
	.byte	$AF
	.byte	$AF
	.byte	$0F
	.byte	$03
	.byte	$00
	.byte	$00
	.byte	$00
	.byte	$00
	.byte	$0C
	.byte	$0F
_marathon_man_run1_data:
	.byte	$06
	.byte	$19
	.byte	$08
	.byte	$00
	.byte	$0C
	.byte	$18
	.byte	$08
	.byte	$00
	.byte	$FF
	.byte	$02
	.byte	$04
	.byte	$00
	.byte	$07
	.byte	$02
	.byte	$05
	.byte	$00
	.byte	$FF
	.byte	$0A
	.byte	$14
	.byte	$00
	.byte	$07
	.byte	$0A
	.byte	$15
	.byte	$00
	.byte	$00
	.byte	$02
	.byte	$06
	.byte	$02
	.byte	$08
	.byte	$02
	.byte	$07
	.byte	$02
	.byte	$00
	.byte	$0A
	.byte	$16
	.byte	$02
	.byte	$08
	.byte	$0A
	.byte	$17
	.byte	$02
	.byte	$08
	.byte	$10
	.byte	$2B
	.byte	$02
	.byte	$00
	.byte	$10
	.byte	$2A
	.byte	$02
	.byte	$F8
	.byte	$10
	.byte	$29
	.byte	$02
	.byte	$08
	.byte	$18
	.byte	$3B
	.byte	$02
	.byte	$00
	.byte	$18
	.byte	$3A
	.byte	$02
	.byte	$F8
	.byte	$18
	.byte	$39
	.byte	$02
	.byte	$08
	.byte	$20
	.byte	$4B
	.byte	$02
	.byte	$00
	.byte	$20
	.byte	$4A
	.byte	$02
	.byte	$F8
	.byte	$20
	.byte	$49
	.byte	$02
	.byte	$08
	.byte	$28
	.byte	$5B
	.byte	$02
	.byte	$00
	.byte	$28
	.byte	$5A
	.byte	$02
	.byte	$F8
	.byte	$28
	.byte	$59
	.byte	$02
	.byte	$F0
	.byte	$28
	.byte	$58
	.byte	$02
	.byte	$F0
	.byte	$30
	.byte	$68
	.byte	$02
	.byte	$F8
	.byte	$30
	.byte	$69
	.byte	$02
	.byte	$00
	.byte	$30
	.byte	$6A
	.byte	$02
	.byte	$08
	.byte	$30
	.byte	$6B
	.byte	$02
	.byte	$08
	.byte	$38
	.byte	$7B
	.byte	$02
	.byte	$10
	.byte	$38
	.byte	$7C
	.byte	$02
	.byte	$80
_marathon_man_run2_data:
	.byte	$08
	.byte	$1A
	.byte	$08
	.byte	$00
	.byte	$FF
	.byte	$03
	.byte	$04
	.byte	$00
	.byte	$07
	.byte	$03
	.byte	$05
	.byte	$00
	.byte	$FF
	.byte	$0B
	.byte	$14
	.byte	$00
	.byte	$07
	.byte	$0B
	.byte	$15
	.byte	$00
	.byte	$00
	.byte	$03
	.byte	$06
	.byte	$02
	.byte	$08
	.byte	$03
	.byte	$07
	.byte	$02
	.byte	$00
	.byte	$0B
	.byte	$16
	.byte	$02
	.byte	$08
	.byte	$0B
	.byte	$17
	.byte	$02
	.byte	$08
	.byte	$10
	.byte	$A2
	.byte	$02
	.byte	$00
	.byte	$10
	.byte	$A1
	.byte	$02
	.byte	$08
	.byte	$18
	.byte	$B2
	.byte	$02
	.byte	$F8
	.byte	$18
	.byte	$B0
	.byte	$02
	.byte	$00
	.byte	$18
	.byte	$B1
	.byte	$02
	.byte	$08
	.byte	$20
	.byte	$C2
	.byte	$02
	.byte	$00
	.byte	$20
	.byte	$C1
	.byte	$02
	.byte	$00
	.byte	$28
	.byte	$D1
	.byte	$02
	.byte	$08
	.byte	$28
	.byte	$D2
	.byte	$02
	.byte	$08
	.byte	$30
	.byte	$E2
	.byte	$02
	.byte	$08
	.byte	$38
	.byte	$F2
	.byte	$02
	.byte	$00
	.byte	$38
	.byte	$F1
	.byte	$02
	.byte	$00
	.byte	$30
	.byte	$E1
	.byte	$02
	.byte	$F8
	.byte	$30
	.byte	$E0
	.byte	$02
	.byte	$80
_marathon_man_run3_data:
	.byte	$0B
	.byte	$16
	.byte	$08
	.byte	$00
	.byte	$FF
	.byte	$02
	.byte	$04
	.byte	$00
	.byte	$07
	.byte	$02
	.byte	$05
	.byte	$00
	.byte	$FF
	.byte	$0A
	.byte	$14
	.byte	$00
	.byte	$07
	.byte	$0A
	.byte	$15
	.byte	$00
	.byte	$00
	.byte	$02
	.byte	$06
	.byte	$02
	.byte	$08
	.byte	$02
	.byte	$07
	.byte	$02
	.byte	$00
	.byte	$0A
	.byte	$16
	.byte	$02
	.byte	$08
	.byte	$0A
	.byte	$17
	.byte	$02
	.byte	$08
	.byte	$10
	.byte	$A6
	.byte	$02
	.byte	$00
	.byte	$10
	.byte	$A5
	.byte	$02
	.byte	$08
	.byte	$18
	.byte	$B6
	.byte	$02
	.byte	$00
	.byte	$18
	.byte	$B5
	.byte	$02
	.byte	$08
	.byte	$20
	.byte	$C6
	.byte	$02
	.byte	$00
	.byte	$20
	.byte	$C5
	.byte	$02
	.byte	$08
	.byte	$28
	.byte	$D6
	.byte	$02
	.byte	$08
	.byte	$30
	.byte	$E6
	.byte	$02
	.byte	$10
	.byte	$30
	.byte	$E7
	.byte	$02
	.byte	$08
	.byte	$38
	.byte	$F6
	.byte	$02
	.byte	$00
	.byte	$38
	.byte	$F5
	.byte	$02
	.byte	$F8
	.byte	$38
	.byte	$F4
	.byte	$02
	.byte	$F0
	.byte	$38
	.byte	$F3
	.byte	$02
	.byte	$F8
	.byte	$30
	.byte	$E4
	.byte	$02
	.byte	$00
	.byte	$30
	.byte	$E5
	.byte	$02
	.byte	$00
	.byte	$28
	.byte	$D5
	.byte	$02
	.byte	$F8
	.byte	$28
	.byte	$D4
	.byte	$02
	.byte	$80
_marathon_man_run4_data:
	.byte	$0C
	.byte	$15
	.byte	$08
	.byte	$00
	.byte	$FF
	.byte	$02
	.byte	$04
	.byte	$00
	.byte	$07
	.byte	$02
	.byte	$05
	.byte	$00
	.byte	$FF
	.byte	$0A
	.byte	$14
	.byte	$00
	.byte	$07
	.byte	$0A
	.byte	$15
	.byte	$00
	.byte	$00
	.byte	$02
	.byte	$06
	.byte	$02
	.byte	$08
	.byte	$02
	.byte	$07
	.byte	$02
	.byte	$00
	.byte	$0A
	.byte	$16
	.byte	$02
	.byte	$08
	.byte	$0A
	.byte	$17
	.byte	$02
	.byte	$08
	.byte	$10
	.byte	$AB
	.byte	$02
	.byte	$00
	.byte	$10
	.byte	$AA
	.byte	$02
	.byte	$08
	.byte	$18
	.byte	$BB
	.byte	$02
	.byte	$00
	.byte	$18
	.byte	$BA
	.byte	$02
	.byte	$F8
	.byte	$18
	.byte	$B9
	.byte	$02
	.byte	$08
	.byte	$20
	.byte	$CB
	.byte	$02
	.byte	$00
	.byte	$20
	.byte	$CA
	.byte	$02
	.byte	$F8
	.byte	$20
	.byte	$C9
	.byte	$02
	.byte	$08
	.byte	$28
	.byte	$DB
	.byte	$02
	.byte	$00
	.byte	$28
	.byte	$DA
	.byte	$02
	.byte	$F8
	.byte	$28
	.byte	$D9
	.byte	$02
	.byte	$F0
	.byte	$28
	.byte	$D8
	.byte	$02
	.byte	$F0
	.byte	$30
	.byte	$E8
	.byte	$02
	.byte	$F8
	.byte	$30
	.byte	$E9
	.byte	$02
	.byte	$00
	.byte	$30
	.byte	$EA
	.byte	$02
	.byte	$08
	.byte	$30
	.byte	$EB
	.byte	$02
	.byte	$10
	.byte	$30
	.byte	$EC
	.byte	$02
	.byte	$10
	.byte	$28
	.byte	$DC
	.byte	$02
	.byte	$10
	.byte	$38
	.byte	$FC
	.byte	$02
	.byte	$18
	.byte	$38
	.byte	$FD
	.byte	$02
	.byte	$80
_marathon_man_run5_data:
	.byte	$0B
	.byte	$16
	.byte	$08
	.byte	$00
	.byte	$FF
	.byte	$03
	.byte	$04
	.byte	$00
	.byte	$07
	.byte	$03
	.byte	$05
	.byte	$00
	.byte	$FF
	.byte	$0B
	.byte	$14
	.byte	$00
	.byte	$07
	.byte	$0B
	.byte	$15
	.byte	$00
	.byte	$00
	.byte	$03
	.byte	$06
	.byte	$02
	.byte	$08
	.byte	$03
	.byte	$07
	.byte	$02
	.byte	$00
	.byte	$0B
	.byte	$16
	.byte	$02
	.byte	$08
	.byte	$0B
	.byte	$17
	.byte	$02
	.byte	$08
	.byte	$10
	.byte	$22
	.byte	$02
	.byte	$00
	.byte	$10
	.byte	$21
	.byte	$02
	.byte	$08
	.byte	$18
	.byte	$32
	.byte	$02
	.byte	$00
	.byte	$18
	.byte	$31
	.byte	$02
	.byte	$08
	.byte	$20
	.byte	$42
	.byte	$02
	.byte	$00
	.byte	$20
	.byte	$41
	.byte	$02
	.byte	$00
	.byte	$28
	.byte	$51
	.byte	$02
	.byte	$08
	.byte	$28
	.byte	$52
	.byte	$02
	.byte	$08
	.byte	$30
	.byte	$62
	.byte	$02
	.byte	$00
	.byte	$30
	.byte	$61
	.byte	$02
	.byte	$F8
	.byte	$30
	.byte	$60
	.byte	$02
	.byte	$08
	.byte	$38
	.byte	$72
	.byte	$02
	.byte	$00
	.byte	$38
	.byte	$71
	.byte	$02
	.byte	$80
_marathon_man_run6_data:
	.byte	$08
	.byte	$18
	.byte	$08
	.byte	$00
	.byte	$FF
	.byte	$02
	.byte	$04
	.byte	$00
	.byte	$07
	.byte	$02
	.byte	$05
	.byte	$00
	.byte	$FF
	.byte	$0A
	.byte	$14
	.byte	$00
	.byte	$07
	.byte	$0A
	.byte	$15
	.byte	$00
	.byte	$00
	.byte	$02
	.byte	$06
	.byte	$02
	.byte	$08
	.byte	$02
	.byte	$07
	.byte	$02
	.byte	$00
	.byte	$0A
	.byte	$16
	.byte	$02
	.byte	$08
	.byte	$0A
	.byte	$17
	.byte	$02
	.byte	$08
	.byte	$10
	.byte	$26
	.byte	$02
	.byte	$00
	.byte	$10
	.byte	$25
	.byte	$02
	.byte	$F8
	.byte	$10
	.byte	$24
	.byte	$02
	.byte	$F8
	.byte	$18
	.byte	$34
	.byte	$02
	.byte	$00
	.byte	$18
	.byte	$35
	.byte	$02
	.byte	$08
	.byte	$18
	.byte	$36
	.byte	$02
	.byte	$08
	.byte	$20
	.byte	$46
	.byte	$02
	.byte	$00
	.byte	$20
	.byte	$45
	.byte	$02
	.byte	$08
	.byte	$28
	.byte	$56
	.byte	$02
	.byte	$08
	.byte	$30
	.byte	$66
	.byte	$02
	.byte	$08
	.byte	$38
	.byte	$76
	.byte	$02
	.byte	$10
	.byte	$30
	.byte	$67
	.byte	$02
	.byte	$00
	.byte	$38
	.byte	$75
	.byte	$02
	.byte	$00
	.byte	$30
	.byte	$65
	.byte	$02
	.byte	$00
	.byte	$28
	.byte	$55
	.byte	$02
	.byte	$F8
	.byte	$28
	.byte	$54
	.byte	$02
	.byte	$F8
	.byte	$30
	.byte	$64
	.byte	$02
	.byte	$F8
	.byte	$38
	.byte	$74
	.byte	$02
	.byte	$80
_marathon_man_walk1_data:
	.byte	$0B
	.byte	$16
	.byte	$08
	.byte	$00
	.byte	$FF
	.byte	$02
	.byte	$04
	.byte	$00
	.byte	$07
	.byte	$02
	.byte	$05
	.byte	$00
	.byte	$FF
	.byte	$0A
	.byte	$14
	.byte	$00
	.byte	$07
	.byte	$0A
	.byte	$15
	.byte	$00
	.byte	$00
	.byte	$02
	.byte	$06
	.byte	$02
	.byte	$08
	.byte	$02
	.byte	$07
	.byte	$02
	.byte	$00
	.byte	$0A
	.byte	$16
	.byte	$02
	.byte	$08
	.byte	$0A
	.byte	$17
	.byte	$02
	.byte	$08
	.byte	$10
	.byte	$0E
	.byte	$02
	.byte	$00
	.byte	$10
	.byte	$0D
	.byte	$02
	.byte	$08
	.byte	$18
	.byte	$1E
	.byte	$02
	.byte	$00
	.byte	$18
	.byte	$1D
	.byte	$02
	.byte	$08
	.byte	$20
	.byte	$2E
	.byte	$02
	.byte	$00
	.byte	$20
	.byte	$2D
	.byte	$02
	.byte	$08
	.byte	$28
	.byte	$3E
	.byte	$02
	.byte	$00
	.byte	$28
	.byte	$3D
	.byte	$02
	.byte	$F8
	.byte	$28
	.byte	$3C
	.byte	$02
	.byte	$00
	.byte	$30
	.byte	$4D
	.byte	$02
	.byte	$F8
	.byte	$30
	.byte	$4C
	.byte	$02
	.byte	$F8
	.byte	$38
	.byte	$5C
	.byte	$02
	.byte	$00
	.byte	$38
	.byte	$5D
	.byte	$02
	.byte	$08
	.byte	$38
	.byte	$5E
	.byte	$02
	.byte	$10
	.byte	$38
	.byte	$5F
	.byte	$02
	.byte	$08
	.byte	$30
	.byte	$4E
	.byte	$02
	.byte	$80
_marathon_man_walk2_data:
	.byte	$08
	.byte	$19
	.byte	$08
	.byte	$00
	.byte	$FF
	.byte	$03
	.byte	$04
	.byte	$00
	.byte	$07
	.byte	$03
	.byte	$05
	.byte	$00
	.byte	$FF
	.byte	$0B
	.byte	$14
	.byte	$00
	.byte	$07
	.byte	$0B
	.byte	$15
	.byte	$00
	.byte	$00
	.byte	$03
	.byte	$06
	.byte	$02
	.byte	$08
	.byte	$03
	.byte	$07
	.byte	$02
	.byte	$00
	.byte	$0B
	.byte	$16
	.byte	$02
	.byte	$08
	.byte	$0B
	.byte	$17
	.byte	$02
	.byte	$07
	.byte	$10
	.byte	$6F
	.byte	$02
	.byte	$FF
	.byte	$10
	.byte	$6E
	.byte	$02
	.byte	$07
	.byte	$18
	.byte	$7F
	.byte	$02
	.byte	$FF
	.byte	$18
	.byte	$7E
	.byte	$02
	.byte	$07
	.byte	$20
	.byte	$8F
	.byte	$02
	.byte	$FF
	.byte	$20
	.byte	$8E
	.byte	$02
	.byte	$07
	.byte	$28
	.byte	$9F
	.byte	$02
	.byte	$FF
	.byte	$28
	.byte	$9E
	.byte	$02
	.byte	$07
	.byte	$30
	.byte	$AF
	.byte	$02
	.byte	$07
	.byte	$38
	.byte	$BF
	.byte	$02
	.byte	$FF
	.byte	$38
	.byte	$BE
	.byte	$02
	.byte	$FF
	.byte	$30
	.byte	$AE
	.byte	$02
	.byte	$F7
	.byte	$30
	.byte	$AD
	.byte	$02
	.byte	$F7
	.byte	$38
	.byte	$BD
	.byte	$02
	.byte	$80
_marathon_man_walk3_data:
	.byte	$06
	.byte	$19
	.byte	$08
	.byte	$00
	.byte	$0C
	.byte	$18
	.byte	$08
	.byte	$00
	.byte	$FF
	.byte	$02
	.byte	$04
	.byte	$00
	.byte	$07
	.byte	$02
	.byte	$05
	.byte	$00
	.byte	$FF
	.byte	$0A
	.byte	$14
	.byte	$00
	.byte	$07
	.byte	$0A
	.byte	$15
	.byte	$00
	.byte	$00
	.byte	$02
	.byte	$06
	.byte	$02
	.byte	$08
	.byte	$02
	.byte	$07
	.byte	$02
	.byte	$00
	.byte	$0A
	.byte	$16
	.byte	$02
	.byte	$08
	.byte	$0A
	.byte	$17
	.byte	$02
	.byte	$08
	.byte	$10
	.byte	$CF
	.byte	$02
	.byte	$00
	.byte	$10
	.byte	$CE
	.byte	$02
	.byte	$08
	.byte	$18
	.byte	$DF
	.byte	$02
	.byte	$00
	.byte	$18
	.byte	$DE
	.byte	$02
	.byte	$F8
	.byte	$18
	.byte	$DD
	.byte	$02
	.byte	$08
	.byte	$20
	.byte	$EF
	.byte	$02
	.byte	$00
	.byte	$20
	.byte	$EE
	.byte	$02
	.byte	$08
	.byte	$28
	.byte	$FF
	.byte	$02
	.byte	$00
	.byte	$28
	.byte	$FE
	.byte	$02
	.byte	$08
	.byte	$30
	.byte	$8C
	.byte	$02
	.byte	$08
	.byte	$38
	.byte	$9C
	.byte	$02
	.byte	$10
	.byte	$38
	.byte	$9D
	.byte	$02
	.byte	$00
	.byte	$30
	.byte	$8B
	.byte	$02
	.byte	$F8
	.byte	$30
	.byte	$8A
	.byte	$02
	.byte	$F8
	.byte	$38
	.byte	$9A
	.byte	$02
	.byte	$F8
	.byte	$10
	.byte	$CD
	.byte	$02
	.byte	$80
_marathon_man_walk4_data:
	.byte	$09
	.byte	$1A
	.byte	$08
	.byte	$00
	.byte	$FF
	.byte	$03
	.byte	$04
	.byte	$00
	.byte	$07
	.byte	$03
	.byte	$05
	.byte	$00
	.byte	$FF
	.byte	$0B
	.byte	$14
	.byte	$00
	.byte	$07
	.byte	$0B
	.byte	$15
	.byte	$00
	.byte	$00
	.byte	$03
	.byte	$06
	.byte	$02
	.byte	$08
	.byte	$03
	.byte	$07
	.byte	$02
	.byte	$00
	.byte	$0B
	.byte	$16
	.byte	$02
	.byte	$08
	.byte	$0B
	.byte	$17
	.byte	$02
	.byte	$07
	.byte	$10
	.byte	$88
	.byte	$02
	.byte	$FF
	.byte	$10
	.byte	$87
	.byte	$02
	.byte	$07
	.byte	$18
	.byte	$98
	.byte	$02
	.byte	$FF
	.byte	$18
	.byte	$97
	.byte	$02
	.byte	$07
	.byte	$20
	.byte	$A8
	.byte	$02
	.byte	$FF
	.byte	$20
	.byte	$A7
	.byte	$02
	.byte	$07
	.byte	$28
	.byte	$B8
	.byte	$02
	.byte	$FF
	.byte	$28
	.byte	$B7
	.byte	$02
	.byte	$FF
	.byte	$30
	.byte	$C7
	.byte	$02
	.byte	$07
	.byte	$30
	.byte	$C8
	.byte	$02
	.byte	$07
	.byte	$38
	.byte	$96
	.byte	$02
	.byte	$FF
	.byte	$38
	.byte	$95
	.byte	$02
	.byte	$F7
	.byte	$30
	.byte	$84
	.byte	$02
	.byte	$F7
	.byte	$38
	.byte	$94
	.byte	$02
	.byte	$80
_marathon_man_cursor1_data:
	.byte	$00
	.byte	$00
	.byte	$93
	.byte	$00
	.byte	$00
	.byte	$00
	.byte	$90
	.byte	$02
	.byte	$80
_marathon_man_cursor2_data:
	.byte	$00
	.byte	$00
	.byte	$93
	.byte	$00
	.byte	$00
	.byte	$00
	.byte	$91
	.byte	$02
	.byte	$80
_marathon_man_cursor3_data:
	.byte	$00
	.byte	$00
	.byte	$93
	.byte	$00
	.byte	$00
	.byte	$00
	.byte	$92
	.byte	$02
	.byte	$80
_marathon_man_1_data:
	.byte	$00
	.byte	$00
	.byte	$10
	.byte	$01
	.byte	$80
_marathon_man_2_data:
	.byte	$00
	.byte	$00
	.byte	$11
	.byte	$01
	.byte	$80
_marathon_man_3_data:
	.byte	$00
	.byte	$00
	.byte	$12
	.byte	$01
	.byte	$80
_marathon_man_4_data:
	.byte	$00
	.byte	$00
	.byte	$13
	.byte	$01
	.byte	$80
_marathon_man_5_data:
	.byte	$00
	.byte	$00
	.byte	$23
	.byte	$01
	.byte	$80
_marathon_man_6_data:
	.byte	$00
	.byte	$00
	.byte	$33
	.byte	$01
	.byte	$80
_marathon_man_7_data:
	.byte	$00
	.byte	$00
	.byte	$43
	.byte	$01
	.byte	$80
_marathon_man_8_data:
	.byte	$00
	.byte	$00
	.byte	$53
	.byte	$01
	.byte	$80
_marathon_man_9_data:
	.byte	$00
	.byte	$00
	.byte	$63
	.byte	$01
	.byte	$80
_marathon_man_10_data:
	.byte	$00
	.byte	$00
	.byte	$73
	.byte	$01
	.byte	$80
_marathon_man_11_data:
	.byte	$00
	.byte	$00
	.byte	$83
	.byte	$01
	.byte	$80
_marathon_man_12_data:
	.byte	$00
	.byte	$00
	.byte	$82
	.byte	$01
	.byte	$80
_marathon_man_alan0_data:
	.byte	$F0
	.byte	$20
	.byte	$01
	.byte	$01
	.byte	$80
_marathon_man_alan1_data:
	.byte	$F0
	.byte	$20
	.byte	$01
	.byte	$01
	.byte	$F0
	.byte	$18
	.byte	$02
	.byte	$01
	.byte	$80
_marathon_man_alan2_data:
	.byte	$F0
	.byte	$20
	.byte	$01
	.byte	$01
	.byte	$F0
	.byte	$18
	.byte	$02
	.byte	$01
	.byte	$F0
	.byte	$10
	.byte	$03
	.byte	$01
	.byte	$80
_marathon_man_alan3_data:
	.byte	$F0
	.byte	$20
	.byte	$01
	.byte	$01
	.byte	$F0
	.byte	$18
	.byte	$02
	.byte	$01
	.byte	$F0
	.byte	$10
	.byte	$03
	.byte	$01
	.byte	$F8
	.byte	$10
	.byte	$09
	.byte	$01
	.byte	$80
_marathon_man_alan4_data:
	.byte	$F0
	.byte	$20
	.byte	$01
	.byte	$01
	.byte	$F0
	.byte	$18
	.byte	$02
	.byte	$01
	.byte	$F0
	.byte	$10
	.byte	$03
	.byte	$01
	.byte	$F8
	.byte	$10
	.byte	$09
	.byte	$01
	.byte	$F8
	.byte	$08
	.byte	$0A
	.byte	$01
	.byte	$80
_marathon_man_alan5_data:
	.byte	$F0
	.byte	$20
	.byte	$01
	.byte	$01
	.byte	$F0
	.byte	$18
	.byte	$02
	.byte	$01
	.byte	$F0
	.byte	$10
	.byte	$03
	.byte	$01
	.byte	$F8
	.byte	$10
	.byte	$09
	.byte	$01
	.byte	$F8
	.byte	$08
	.byte	$0A
	.byte	$01
	.byte	$F8
	.byte	$00
	.byte	$0B
	.byte	$01
	.byte	$80
_marathon_man_alan6_data:
	.byte	$F0
	.byte	$20
	.byte	$01
	.byte	$01
	.byte	$F0
	.byte	$18
	.byte	$02
	.byte	$01
	.byte	$F0
	.byte	$10
	.byte	$03
	.byte	$01
	.byte	$F8
	.byte	$10
	.byte	$09
	.byte	$01
	.byte	$F8
	.byte	$08
	.byte	$0A
	.byte	$01
	.byte	$F8
	.byte	$00
	.byte	$0B
	.byte	$01
	.byte	$00
	.byte	$00
	.byte	$0C
	.byte	$01
	.byte	$80
_marathon_man_alan7_data:
	.byte	$F0
	.byte	$20
	.byte	$01
	.byte	$01
	.byte	$F0
	.byte	$18
	.byte	$02
	.byte	$01
	.byte	$F0
	.byte	$10
	.byte	$03
	.byte	$01
	.byte	$F8
	.byte	$10
	.byte	$09
	.byte	$01
	.byte	$F8
	.byte	$08
	.byte	$0A
	.byte	$01
	.byte	$F8
	.byte	$00
	.byte	$0B
	.byte	$01
	.byte	$00
	.byte	$00
	.byte	$0C
	.byte	$01
	.byte	$00
	.byte	$08
	.byte	$0F
	.byte	$01
	.byte	$80
_marathon_man_alan8_data:
	.byte	$F0
	.byte	$20
	.byte	$01
	.byte	$01
	.byte	$F0
	.byte	$18
	.byte	$02
	.byte	$01
	.byte	$F0
	.byte	$10
	.byte	$03
	.byte	$01
	.byte	$F8
	.byte	$10
	.byte	$19
	.byte	$01
	.byte	$F8
	.byte	$08
	.byte	$0A
	.byte	$01
	.byte	$F8
	.byte	$00
	.byte	$0B
	.byte	$01
	.byte	$00
	.byte	$00
	.byte	$0C
	.byte	$01
	.byte	$00
	.byte	$08
	.byte	$0F
	.byte	$01
	.byte	$80
_marathon_man_alan9_data:
	.byte	$F0
	.byte	$20
	.byte	$01
	.byte	$01
	.byte	$F0
	.byte	$18
	.byte	$02
	.byte	$01
	.byte	$F0
	.byte	$10
	.byte	$03
	.byte	$01
	.byte	$F8
	.byte	$10
	.byte	$19
	.byte	$01
	.byte	$F8
	.byte	$08
	.byte	$0A
	.byte	$01
	.byte	$F8
	.byte	$00
	.byte	$0B
	.byte	$01
	.byte	$00
	.byte	$00
	.byte	$0C
	.byte	$01
	.byte	$00
	.byte	$08
	.byte	$0F
	.byte	$01
	.byte	$F8
	.byte	$18
	.byte	$1A
	.byte	$01
	.byte	$80
_marathon_man_alan10_data:
	.byte	$F0
	.byte	$20
	.byte	$01
	.byte	$01
	.byte	$F0
	.byte	$18
	.byte	$02
	.byte	$01
	.byte	$F0
	.byte	$10
	.byte	$03
	.byte	$01
	.byte	$F8
	.byte	$10
	.byte	$19
	.byte	$01
	.byte	$F8
	.byte	$08
	.byte	$0A
	.byte	$01
	.byte	$F8
	.byte	$00
	.byte	$0B
	.byte	$01
	.byte	$00
	.byte	$00
	.byte	$0C
	.byte	$01
	.byte	$00
	.byte	$08
	.byte	$0F
	.byte	$01
	.byte	$F8
	.byte	$18
	.byte	$1A
	.byte	$01
	.byte	$F8
	.byte	$20
	.byte	$1B
	.byte	$01
	.byte	$80
_marathon_man_alan11_data:
	.byte	$F0
	.byte	$20
	.byte	$01
	.byte	$01
	.byte	$F0
	.byte	$18
	.byte	$02
	.byte	$01
	.byte	$F0
	.byte	$10
	.byte	$03
	.byte	$01
	.byte	$F8
	.byte	$10
	.byte	$19
	.byte	$01
	.byte	$F8
	.byte	$08
	.byte	$0A
	.byte	$01
	.byte	$F8
	.byte	$00
	.byte	$0B
	.byte	$01
	.byte	$00
	.byte	$00
	.byte	$0C
	.byte	$01
	.byte	$00
	.byte	$08
	.byte	$0F
	.byte	$01
	.byte	$F8
	.byte	$18
	.byte	$1C
	.byte	$01
	.byte	$F8
	.byte	$20
	.byte	$1B
	.byte	$01
	.byte	$80
_marathon_man_alan12_data:
	.byte	$F0
	.byte	$20
	.byte	$01
	.byte	$01
	.byte	$F0
	.byte	$18
	.byte	$1F
	.byte	$01
	.byte	$F0
	.byte	$10
	.byte	$03
	.byte	$01
	.byte	$F8
	.byte	$10
	.byte	$19
	.byte	$01
	.byte	$F8
	.byte	$08
	.byte	$0A
	.byte	$01
	.byte	$F8
	.byte	$00
	.byte	$0B
	.byte	$01
	.byte	$00
	.byte	$00
	.byte	$0C
	.byte	$01
	.byte	$00
	.byte	$08
	.byte	$0F
	.byte	$01
	.byte	$F8
	.byte	$18
	.byte	$1C
	.byte	$01
	.byte	$F8
	.byte	$20
	.byte	$1B
	.byte	$01
	.byte	$80
_marathon_man_alan13_data:
	.byte	$F0
	.byte	$20
	.byte	$01
	.byte	$01
	.byte	$F0
	.byte	$18
	.byte	$1F
	.byte	$01
	.byte	$F0
	.byte	$10
	.byte	$03
	.byte	$01
	.byte	$F8
	.byte	$10
	.byte	$19
	.byte	$01
	.byte	$F8
	.byte	$08
	.byte	$0A
	.byte	$01
	.byte	$F8
	.byte	$00
	.byte	$0B
	.byte	$01
	.byte	$00
	.byte	$00
	.byte	$0C
	.byte	$01
	.byte	$00
	.byte	$08
	.byte	$0F
	.byte	$01
	.byte	$F8
	.byte	$18
	.byte	$1C
	.byte	$01
	.byte	$F8
	.byte	$20
	.byte	$1B
	.byte	$01
	.byte	$08
	.byte	$00
	.byte	$20
	.byte	$01
	.byte	$80
_marathon_man_alan14_data:
	.byte	$F0
	.byte	$20
	.byte	$01
	.byte	$01
	.byte	$F0
	.byte	$18
	.byte	$1F
	.byte	$01
	.byte	$F0
	.byte	$10
	.byte	$03
	.byte	$01
	.byte	$F8
	.byte	$10
	.byte	$19
	.byte	$01
	.byte	$F8
	.byte	$08
	.byte	$0A
	.byte	$01
	.byte	$F8
	.byte	$00
	.byte	$0B
	.byte	$01
	.byte	$00
	.byte	$00
	.byte	$0C
	.byte	$01
	.byte	$00
	.byte	$08
	.byte	$0F
	.byte	$01
	.byte	$F8
	.byte	$18
	.byte	$1C
	.byte	$01
	.byte	$F8
	.byte	$20
	.byte	$1B
	.byte	$01
	.byte	$08
	.byte	$00
	.byte	$20
	.byte	$01
	.byte	$08
	.byte	$08
	.byte	$27
	.byte	$01
	.byte	$80
_marathon_man_alan15_data:
	.byte	$F0
	.byte	$20
	.byte	$01
	.byte	$01
	.byte	$F0
	.byte	$18
	.byte	$1F
	.byte	$01
	.byte	$F0
	.byte	$10
	.byte	$03
	.byte	$01
	.byte	$F8
	.byte	$10
	.byte	$19
	.byte	$01
	.byte	$F8
	.byte	$08
	.byte	$0A
	.byte	$01
	.byte	$F8
	.byte	$00
	.byte	$0B
	.byte	$01
	.byte	$00
	.byte	$00
	.byte	$0C
	.byte	$01
	.byte	$00
	.byte	$08
	.byte	$28
	.byte	$01
	.byte	$F8
	.byte	$18
	.byte	$1C
	.byte	$01
	.byte	$F8
	.byte	$20
	.byte	$1B
	.byte	$01
	.byte	$08
	.byte	$00
	.byte	$20
	.byte	$01
	.byte	$08
	.byte	$08
	.byte	$27
	.byte	$01
	.byte	$80
_marathon_man_alan16_data:
	.byte	$F0
	.byte	$20
	.byte	$01
	.byte	$01
	.byte	$F0
	.byte	$18
	.byte	$1F
	.byte	$01
	.byte	$F0
	.byte	$10
	.byte	$03
	.byte	$01
	.byte	$F8
	.byte	$10
	.byte	$19
	.byte	$01
	.byte	$F8
	.byte	$08
	.byte	$0A
	.byte	$01
	.byte	$F8
	.byte	$00
	.byte	$0B
	.byte	$01
	.byte	$00
	.byte	$00
	.byte	$0C
	.byte	$01
	.byte	$00
	.byte	$08
	.byte	$28
	.byte	$01
	.byte	$F8
	.byte	$18
	.byte	$1C
	.byte	$01
	.byte	$F8
	.byte	$20
	.byte	$1B
	.byte	$01
	.byte	$08
	.byte	$00
	.byte	$20
	.byte	$01
	.byte	$08
	.byte	$08
	.byte	$27
	.byte	$01
	.byte	$00
	.byte	$10
	.byte	$2C
	.byte	$01
	.byte	$80
_marathon_man_alan17_data:
	.byte	$F0
	.byte	$20
	.byte	$01
	.byte	$01
	.byte	$F0
	.byte	$18
	.byte	$1F
	.byte	$01
	.byte	$F0
	.byte	$10
	.byte	$03
	.byte	$01
	.byte	$F8
	.byte	$10
	.byte	$19
	.byte	$01
	.byte	$F8
	.byte	$08
	.byte	$0A
	.byte	$01
	.byte	$F8
	.byte	$00
	.byte	$0B
	.byte	$01
	.byte	$00
	.byte	$00
	.byte	$0C
	.byte	$01
	.byte	$00
	.byte	$08
	.byte	$28
	.byte	$01
	.byte	$F8
	.byte	$18
	.byte	$1C
	.byte	$01
	.byte	$F8
	.byte	$20
	.byte	$1B
	.byte	$01
	.byte	$08
	.byte	$00
	.byte	$20
	.byte	$01
	.byte	$08
	.byte	$08
	.byte	$27
	.byte	$01
	.byte	$00
	.byte	$10
	.byte	$2C
	.byte	$01
	.byte	$00
	.byte	$18
	.byte	$2F
	.byte	$01
	.byte	$80
_marathon_man_alan18_data:
	.byte	$F0
	.byte	$20
	.byte	$01
	.byte	$01
	.byte	$F0
	.byte	$18
	.byte	$1F
	.byte	$01
	.byte	$F0
	.byte	$10
	.byte	$03
	.byte	$01
	.byte	$F8
	.byte	$10
	.byte	$19
	.byte	$01
	.byte	$F8
	.byte	$08
	.byte	$0A
	.byte	$01
	.byte	$F8
	.byte	$00
	.byte	$0B
	.byte	$01
	.byte	$00
	.byte	$00
	.byte	$0C
	.byte	$01
	.byte	$00
	.byte	$08
	.byte	$28
	.byte	$01
	.byte	$F8
	.byte	$18
	.byte	$1C
	.byte	$01
	.byte	$F8
	.byte	$20
	.byte	$1B
	.byte	$01
	.byte	$08
	.byte	$00
	.byte	$20
	.byte	$01
	.byte	$08
	.byte	$08
	.byte	$27
	.byte	$01
	.byte	$00
	.byte	$10
	.byte	$2C
	.byte	$01
	.byte	$00
	.byte	$18
	.byte	$2F
	.byte	$01
	.byte	$00
	.byte	$20
	.byte	$30
	.byte	$01
	.byte	$80
_marathon_man_alan19_data:
	.byte	$F0
	.byte	$20
	.byte	$01
	.byte	$01
	.byte	$F0
	.byte	$18
	.byte	$1F
	.byte	$01
	.byte	$F0
	.byte	$10
	.byte	$03
	.byte	$01
	.byte	$F8
	.byte	$10
	.byte	$19
	.byte	$01
	.byte	$F8
	.byte	$08
	.byte	$0A
	.byte	$01
	.byte	$F8
	.byte	$00
	.byte	$0B
	.byte	$01
	.byte	$00
	.byte	$00
	.byte	$0C
	.byte	$01
	.byte	$00
	.byte	$08
	.byte	$28
	.byte	$01
	.byte	$F8
	.byte	$18
	.byte	$1C
	.byte	$01
	.byte	$F8
	.byte	$20
	.byte	$1B
	.byte	$01
	.byte	$08
	.byte	$00
	.byte	$20
	.byte	$01
	.byte	$08
	.byte	$08
	.byte	$27
	.byte	$01
	.byte	$00
	.byte	$10
	.byte	$2C
	.byte	$01
	.byte	$00
	.byte	$18
	.byte	$2F
	.byte	$01
	.byte	$00
	.byte	$20
	.byte	$30
	.byte	$01
	.byte	$08
	.byte	$20
	.byte	$80
	.byte	$01
	.byte	$80
_marathon_man_alan20_data:
	.byte	$F0
	.byte	$20
	.byte	$01
	.byte	$01
	.byte	$F0
	.byte	$18
	.byte	$1F
	.byte	$01
	.byte	$F0
	.byte	$10
	.byte	$03
	.byte	$01
	.byte	$F8
	.byte	$10
	.byte	$19
	.byte	$01
	.byte	$F8
	.byte	$08
	.byte	$0A
	.byte	$01
	.byte	$F8
	.byte	$00
	.byte	$0B
	.byte	$01
	.byte	$00
	.byte	$00
	.byte	$0C
	.byte	$01
	.byte	$00
	.byte	$08
	.byte	$28
	.byte	$01
	.byte	$F8
	.byte	$18
	.byte	$1C
	.byte	$01
	.byte	$F8
	.byte	$20
	.byte	$1B
	.byte	$01
	.byte	$08
	.byte	$00
	.byte	$20
	.byte	$01
	.byte	$08
	.byte	$08
	.byte	$27
	.byte	$01
	.byte	$00
	.byte	$10
	.byte	$2C
	.byte	$01
	.byte	$00
	.byte	$18
	.byte	$2F
	.byte	$01
	.byte	$00
	.byte	$20
	.byte	$37
	.byte	$01
	.byte	$08
	.byte	$20
	.byte	$80
	.byte	$01
	.byte	$80
_marathon_man_alan21_data:
	.byte	$F0
	.byte	$20
	.byte	$01
	.byte	$01
	.byte	$F0
	.byte	$18
	.byte	$1F
	.byte	$01
	.byte	$F0
	.byte	$10
	.byte	$03
	.byte	$01
	.byte	$F8
	.byte	$10
	.byte	$19
	.byte	$01
	.byte	$F8
	.byte	$08
	.byte	$0A
	.byte	$01
	.byte	$F8
	.byte	$00
	.byte	$0B
	.byte	$01
	.byte	$00
	.byte	$00
	.byte	$0C
	.byte	$01
	.byte	$00
	.byte	$08
	.byte	$28
	.byte	$01
	.byte	$F8
	.byte	$18
	.byte	$1C
	.byte	$01
	.byte	$F8
	.byte	$20
	.byte	$1B
	.byte	$01
	.byte	$08
	.byte	$00
	.byte	$20
	.byte	$01
	.byte	$08
	.byte	$08
	.byte	$27
	.byte	$01
	.byte	$00
	.byte	$10
	.byte	$2C
	.byte	$01
	.byte	$00
	.byte	$18
	.byte	$2F
	.byte	$01
	.byte	$00
	.byte	$20
	.byte	$37
	.byte	$01
	.byte	$08
	.byte	$20
	.byte	$38
	.byte	$01
	.byte	$80
_marathon_man_alan22_data:
	.byte	$F0
	.byte	$20
	.byte	$01
	.byte	$01
	.byte	$F0
	.byte	$18
	.byte	$1F
	.byte	$01
	.byte	$F0
	.byte	$10
	.byte	$03
	.byte	$01
	.byte	$F8
	.byte	$10
	.byte	$19
	.byte	$01
	.byte	$F8
	.byte	$08
	.byte	$0A
	.byte	$01
	.byte	$F8
	.byte	$00
	.byte	$0B
	.byte	$01
	.byte	$00
	.byte	$00
	.byte	$0C
	.byte	$01
	.byte	$00
	.byte	$08
	.byte	$28
	.byte	$01
	.byte	$F8
	.byte	$18
	.byte	$1C
	.byte	$01
	.byte	$F8
	.byte	$20
	.byte	$1B
	.byte	$01
	.byte	$08
	.byte	$00
	.byte	$20
	.byte	$01
	.byte	$08
	.byte	$08
	.byte	$27
	.byte	$01
	.byte	$00
	.byte	$10
	.byte	$2C
	.byte	$01
	.byte	$00
	.byte	$18
	.byte	$2F
	.byte	$01
	.byte	$00
	.byte	$20
	.byte	$37
	.byte	$01
	.byte	$08
	.byte	$20
	.byte	$38
	.byte	$01
	.byte	$20
	.byte	$08
	.byte	$3F
	.byte	$01
	.byte	$80
_marathon_man_alan23_data:
	.byte	$F0
	.byte	$20
	.byte	$01
	.byte	$01
	.byte	$F0
	.byte	$18
	.byte	$1F
	.byte	$01
	.byte	$F0
	.byte	$10
	.byte	$03
	.byte	$01
	.byte	$F8
	.byte	$10
	.byte	$19
	.byte	$01
	.byte	$F8
	.byte	$08
	.byte	$0A
	.byte	$01
	.byte	$F8
	.byte	$00
	.byte	$0B
	.byte	$01
	.byte	$00
	.byte	$00
	.byte	$0C
	.byte	$01
	.byte	$00
	.byte	$08
	.byte	$28
	.byte	$01
	.byte	$F8
	.byte	$18
	.byte	$1C
	.byte	$01
	.byte	$F8
	.byte	$20
	.byte	$1B
	.byte	$01
	.byte	$08
	.byte	$00
	.byte	$20
	.byte	$01
	.byte	$08
	.byte	$08
	.byte	$27
	.byte	$01
	.byte	$00
	.byte	$10
	.byte	$2C
	.byte	$01
	.byte	$00
	.byte	$18
	.byte	$2F
	.byte	$01
	.byte	$00
	.byte	$20
	.byte	$37
	.byte	$01
	.byte	$08
	.byte	$20
	.byte	$38
	.byte	$01
	.byte	$20
	.byte	$08
	.byte	$3F
	.byte	$01
	.byte	$20
	.byte	$10
	.byte	$40
	.byte	$01
	.byte	$80
_marathon_man_alan24_data:
	.byte	$F0
	.byte	$20
	.byte	$01
	.byte	$01
	.byte	$F0
	.byte	$18
	.byte	$1F
	.byte	$01
	.byte	$F0
	.byte	$10
	.byte	$03
	.byte	$01
	.byte	$F8
	.byte	$10
	.byte	$19
	.byte	$01
	.byte	$F8
	.byte	$08
	.byte	$0A
	.byte	$01
	.byte	$F8
	.byte	$00
	.byte	$0B
	.byte	$01
	.byte	$00
	.byte	$00
	.byte	$0C
	.byte	$01
	.byte	$00
	.byte	$08
	.byte	$28
	.byte	$01
	.byte	$F8
	.byte	$18
	.byte	$1C
	.byte	$01
	.byte	$F8
	.byte	$20
	.byte	$1B
	.byte	$01
	.byte	$08
	.byte	$00
	.byte	$20
	.byte	$01
	.byte	$08
	.byte	$08
	.byte	$27
	.byte	$01
	.byte	$00
	.byte	$10
	.byte	$2C
	.byte	$01
	.byte	$00
	.byte	$18
	.byte	$2F
	.byte	$01
	.byte	$00
	.byte	$20
	.byte	$37
	.byte	$01
	.byte	$08
	.byte	$20
	.byte	$38
	.byte	$01
	.byte	$20
	.byte	$08
	.byte	$3F
	.byte	$01
	.byte	$20
	.byte	$10
	.byte	$40
	.byte	$01
	.byte	$18
	.byte	$10
	.byte	$44
	.byte	$01
	.byte	$80
_marathon_man_alan25_data:
	.byte	$F0
	.byte	$20
	.byte	$01
	.byte	$01
	.byte	$F0
	.byte	$18
	.byte	$1F
	.byte	$01
	.byte	$F0
	.byte	$10
	.byte	$03
	.byte	$01
	.byte	$F8
	.byte	$10
	.byte	$19
	.byte	$01
	.byte	$F8
	.byte	$08
	.byte	$0A
	.byte	$01
	.byte	$F8
	.byte	$00
	.byte	$0B
	.byte	$01
	.byte	$00
	.byte	$00
	.byte	$0C
	.byte	$01
	.byte	$00
	.byte	$08
	.byte	$28
	.byte	$01
	.byte	$F8
	.byte	$18
	.byte	$1C
	.byte	$01
	.byte	$F8
	.byte	$20
	.byte	$1B
	.byte	$01
	.byte	$08
	.byte	$00
	.byte	$20
	.byte	$01
	.byte	$08
	.byte	$08
	.byte	$27
	.byte	$01
	.byte	$00
	.byte	$10
	.byte	$2C
	.byte	$01
	.byte	$00
	.byte	$18
	.byte	$2F
	.byte	$01
	.byte	$00
	.byte	$20
	.byte	$37
	.byte	$01
	.byte	$08
	.byte	$20
	.byte	$38
	.byte	$01
	.byte	$20
	.byte	$08
	.byte	$3F
	.byte	$01
	.byte	$20
	.byte	$10
	.byte	$40
	.byte	$01
	.byte	$18
	.byte	$10
	.byte	$44
	.byte	$01
	.byte	$18
	.byte	$18
	.byte	$47
	.byte	$01
	.byte	$80
_marathon_man_alan26_data:
	.byte	$F0
	.byte	$20
	.byte	$01
	.byte	$01
	.byte	$F0
	.byte	$18
	.byte	$1F
	.byte	$01
	.byte	$F0
	.byte	$10
	.byte	$03
	.byte	$01
	.byte	$F8
	.byte	$10
	.byte	$19
	.byte	$01
	.byte	$F8
	.byte	$08
	.byte	$0A
	.byte	$01
	.byte	$F8
	.byte	$00
	.byte	$0B
	.byte	$01
	.byte	$00
	.byte	$00
	.byte	$0C
	.byte	$01
	.byte	$00
	.byte	$08
	.byte	$28
	.byte	$01
	.byte	$F8
	.byte	$18
	.byte	$1C
	.byte	$01
	.byte	$F8
	.byte	$20
	.byte	$1B
	.byte	$01
	.byte	$08
	.byte	$00
	.byte	$20
	.byte	$01
	.byte	$08
	.byte	$08
	.byte	$27
	.byte	$01
	.byte	$00
	.byte	$10
	.byte	$2C
	.byte	$01
	.byte	$00
	.byte	$18
	.byte	$2F
	.byte	$01
	.byte	$00
	.byte	$20
	.byte	$37
	.byte	$01
	.byte	$08
	.byte	$20
	.byte	$38
	.byte	$01
	.byte	$20
	.byte	$08
	.byte	$3F
	.byte	$01
	.byte	$20
	.byte	$10
	.byte	$40
	.byte	$01
	.byte	$18
	.byte	$10
	.byte	$44
	.byte	$01
	.byte	$18
	.byte	$18
	.byte	$47
	.byte	$01
	.byte	$18
	.byte	$20
	.byte	$48
	.byte	$01
	.byte	$80
_marathon_man_alan27_data:
	.byte	$F0
	.byte	$20
	.byte	$01
	.byte	$01
	.byte	$F0
	.byte	$18
	.byte	$1F
	.byte	$01
	.byte	$F0
	.byte	$10
	.byte	$03
	.byte	$01
	.byte	$F8
	.byte	$10
	.byte	$19
	.byte	$01
	.byte	$F8
	.byte	$08
	.byte	$0A
	.byte	$01
	.byte	$F8
	.byte	$00
	.byte	$0B
	.byte	$01
	.byte	$00
	.byte	$00
	.byte	$0C
	.byte	$01
	.byte	$00
	.byte	$08
	.byte	$28
	.byte	$01
	.byte	$F8
	.byte	$18
	.byte	$1C
	.byte	$01
	.byte	$F8
	.byte	$20
	.byte	$1B
	.byte	$01
	.byte	$08
	.byte	$00
	.byte	$20
	.byte	$01
	.byte	$08
	.byte	$08
	.byte	$27
	.byte	$01
	.byte	$00
	.byte	$10
	.byte	$2C
	.byte	$01
	.byte	$00
	.byte	$18
	.byte	$2F
	.byte	$01
	.byte	$00
	.byte	$20
	.byte	$37
	.byte	$01
	.byte	$08
	.byte	$20
	.byte	$38
	.byte	$01
	.byte	$20
	.byte	$08
	.byte	$3F
	.byte	$01
	.byte	$20
	.byte	$10
	.byte	$40
	.byte	$01
	.byte	$18
	.byte	$10
	.byte	$44
	.byte	$01
	.byte	$18
	.byte	$18
	.byte	$47
	.byte	$01
	.byte	$18
	.byte	$20
	.byte	$48
	.byte	$01
	.byte	$18
	.byte	$28
	.byte	$4F
	.byte	$01
	.byte	$80
_marathon_man_alan28_data:
	.byte	$F0
	.byte	$20
	.byte	$01
	.byte	$01
	.byte	$F0
	.byte	$18
	.byte	$1F
	.byte	$01
	.byte	$F0
	.byte	$10
	.byte	$03
	.byte	$01
	.byte	$F8
	.byte	$10
	.byte	$19
	.byte	$01
	.byte	$F8
	.byte	$08
	.byte	$0A
	.byte	$01
	.byte	$F8
	.byte	$00
	.byte	$0B
	.byte	$01
	.byte	$00
	.byte	$00
	.byte	$0C
	.byte	$01
	.byte	$00
	.byte	$08
	.byte	$28
	.byte	$01
	.byte	$F8
	.byte	$18
	.byte	$1C
	.byte	$01
	.byte	$F8
	.byte	$20
	.byte	$1B
	.byte	$01
	.byte	$08
	.byte	$00
	.byte	$20
	.byte	$01
	.byte	$08
	.byte	$08
	.byte	$27
	.byte	$01
	.byte	$00
	.byte	$10
	.byte	$2C
	.byte	$01
	.byte	$00
	.byte	$18
	.byte	$2F
	.byte	$01
	.byte	$00
	.byte	$20
	.byte	$37
	.byte	$01
	.byte	$08
	.byte	$20
	.byte	$38
	.byte	$01
	.byte	$20
	.byte	$08
	.byte	$3F
	.byte	$01
	.byte	$20
	.byte	$10
	.byte	$40
	.byte	$01
	.byte	$18
	.byte	$10
	.byte	$44
	.byte	$01
	.byte	$18
	.byte	$18
	.byte	$47
	.byte	$01
	.byte	$18
	.byte	$20
	.byte	$48
	.byte	$01
	.byte	$18
	.byte	$28
	.byte	$4F
	.byte	$01
	.byte	$10
	.byte	$30
	.byte	$50
	.byte	$01
	.byte	$80
_marathon_man_alan29_data:
	.byte	$F0
	.byte	$20
	.byte	$01
	.byte	$01
	.byte	$F0
	.byte	$18
	.byte	$1F
	.byte	$01
	.byte	$F0
	.byte	$10
	.byte	$03
	.byte	$01
	.byte	$F8
	.byte	$10
	.byte	$19
	.byte	$01
	.byte	$F8
	.byte	$08
	.byte	$0A
	.byte	$01
	.byte	$F8
	.byte	$00
	.byte	$0B
	.byte	$01
	.byte	$00
	.byte	$00
	.byte	$0C
	.byte	$01
	.byte	$00
	.byte	$08
	.byte	$28
	.byte	$01
	.byte	$F8
	.byte	$18
	.byte	$1C
	.byte	$01
	.byte	$F8
	.byte	$20
	.byte	$1B
	.byte	$01
	.byte	$08
	.byte	$00
	.byte	$20
	.byte	$01
	.byte	$08
	.byte	$08
	.byte	$27
	.byte	$01
	.byte	$00
	.byte	$10
	.byte	$2C
	.byte	$01
	.byte	$00
	.byte	$18
	.byte	$2F
	.byte	$01
	.byte	$00
	.byte	$20
	.byte	$37
	.byte	$01
	.byte	$08
	.byte	$20
	.byte	$38
	.byte	$01
	.byte	$20
	.byte	$08
	.byte	$3F
	.byte	$01
	.byte	$20
	.byte	$10
	.byte	$40
	.byte	$01
	.byte	$18
	.byte	$10
	.byte	$44
	.byte	$01
	.byte	$18
	.byte	$18
	.byte	$47
	.byte	$01
	.byte	$18
	.byte	$20
	.byte	$48
	.byte	$01
	.byte	$18
	.byte	$28
	.byte	$4F
	.byte	$01
	.byte	$10
	.byte	$30
	.byte	$50
	.byte	$01
	.byte	$38
	.byte	$00
	.byte	$57
	.byte	$01
	.byte	$80
_marathon_man_alan30_data:
	.byte	$F0
	.byte	$20
	.byte	$01
	.byte	$01
	.byte	$F0
	.byte	$18
	.byte	$1F
	.byte	$01
	.byte	$F0
	.byte	$10
	.byte	$03
	.byte	$01
	.byte	$F8
	.byte	$10
	.byte	$19
	.byte	$01
	.byte	$F8
	.byte	$08
	.byte	$0A
	.byte	$01
	.byte	$F8
	.byte	$00
	.byte	$0B
	.byte	$01
	.byte	$00
	.byte	$00
	.byte	$0C
	.byte	$01
	.byte	$00
	.byte	$08
	.byte	$28
	.byte	$01
	.byte	$F8
	.byte	$18
	.byte	$1C
	.byte	$01
	.byte	$F8
	.byte	$20
	.byte	$1B
	.byte	$01
	.byte	$08
	.byte	$00
	.byte	$20
	.byte	$01
	.byte	$08
	.byte	$08
	.byte	$27
	.byte	$01
	.byte	$00
	.byte	$10
	.byte	$2C
	.byte	$01
	.byte	$00
	.byte	$18
	.byte	$2F
	.byte	$01
	.byte	$00
	.byte	$20
	.byte	$37
	.byte	$01
	.byte	$08
	.byte	$20
	.byte	$38
	.byte	$01
	.byte	$20
	.byte	$08
	.byte	$3F
	.byte	$01
	.byte	$20
	.byte	$10
	.byte	$40
	.byte	$01
	.byte	$18
	.byte	$10
	.byte	$44
	.byte	$01
	.byte	$18
	.byte	$18
	.byte	$47
	.byte	$01
	.byte	$18
	.byte	$20
	.byte	$48
	.byte	$01
	.byte	$18
	.byte	$28
	.byte	$4F
	.byte	$01
	.byte	$10
	.byte	$30
	.byte	$50
	.byte	$01
	.byte	$38
	.byte	$00
	.byte	$57
	.byte	$01
	.byte	$30
	.byte	$00
	.byte	$6C
	.byte	$01
	.byte	$80
_marathon_man_alan31_data:
	.byte	$F0
	.byte	$20
	.byte	$01
	.byte	$01
	.byte	$F0
	.byte	$18
	.byte	$1F
	.byte	$01
	.byte	$F0
	.byte	$10
	.byte	$03
	.byte	$01
	.byte	$F8
	.byte	$10
	.byte	$19
	.byte	$01
	.byte	$F8
	.byte	$08
	.byte	$0A
	.byte	$01
	.byte	$F8
	.byte	$00
	.byte	$0B
	.byte	$01
	.byte	$00
	.byte	$00
	.byte	$0C
	.byte	$01
	.byte	$00
	.byte	$08
	.byte	$28
	.byte	$01
	.byte	$F8
	.byte	$18
	.byte	$1C
	.byte	$01
	.byte	$F8
	.byte	$20
	.byte	$1B
	.byte	$01
	.byte	$08
	.byte	$00
	.byte	$20
	.byte	$01
	.byte	$08
	.byte	$08
	.byte	$27
	.byte	$01
	.byte	$00
	.byte	$10
	.byte	$2C
	.byte	$01
	.byte	$00
	.byte	$18
	.byte	$2F
	.byte	$01
	.byte	$00
	.byte	$20
	.byte	$37
	.byte	$01
	.byte	$08
	.byte	$20
	.byte	$38
	.byte	$01
	.byte	$20
	.byte	$08
	.byte	$3F
	.byte	$01
	.byte	$20
	.byte	$10
	.byte	$40
	.byte	$01
	.byte	$18
	.byte	$10
	.byte	$44
	.byte	$01
	.byte	$18
	.byte	$18
	.byte	$47
	.byte	$01
	.byte	$18
	.byte	$20
	.byte	$48
	.byte	$01
	.byte	$18
	.byte	$28
	.byte	$4F
	.byte	$01
	.byte	$10
	.byte	$30
	.byte	$50
	.byte	$01
	.byte	$38
	.byte	$00
	.byte	$57
	.byte	$01
	.byte	$30
	.byte	$00
	.byte	$6C
	.byte	$01
	.byte	$28
	.byte	$00
	.byte	$6D
	.byte	$01
	.byte	$80
_marathon_man_alan32_data:
	.byte	$F0
	.byte	$20
	.byte	$01
	.byte	$01
	.byte	$F0
	.byte	$18
	.byte	$1F
	.byte	$01
	.byte	$F0
	.byte	$10
	.byte	$03
	.byte	$01
	.byte	$F8
	.byte	$10
	.byte	$19
	.byte	$01
	.byte	$F8
	.byte	$08
	.byte	$0A
	.byte	$01
	.byte	$F8
	.byte	$00
	.byte	$0B
	.byte	$01
	.byte	$00
	.byte	$00
	.byte	$0C
	.byte	$01
	.byte	$00
	.byte	$08
	.byte	$28
	.byte	$01
	.byte	$F8
	.byte	$18
	.byte	$1C
	.byte	$01
	.byte	$F8
	.byte	$20
	.byte	$1B
	.byte	$01
	.byte	$08
	.byte	$00
	.byte	$20
	.byte	$01
	.byte	$08
	.byte	$08
	.byte	$27
	.byte	$01
	.byte	$00
	.byte	$10
	.byte	$2C
	.byte	$01
	.byte	$00
	.byte	$18
	.byte	$2F
	.byte	$01
	.byte	$00
	.byte	$20
	.byte	$37
	.byte	$01
	.byte	$08
	.byte	$20
	.byte	$38
	.byte	$01
	.byte	$20
	.byte	$08
	.byte	$3F
	.byte	$01
	.byte	$20
	.byte	$10
	.byte	$40
	.byte	$01
	.byte	$18
	.byte	$10
	.byte	$44
	.byte	$01
	.byte	$18
	.byte	$18
	.byte	$47
	.byte	$01
	.byte	$18
	.byte	$20
	.byte	$48
	.byte	$01
	.byte	$18
	.byte	$28
	.byte	$4F
	.byte	$01
	.byte	$10
	.byte	$30
	.byte	$50
	.byte	$01
	.byte	$38
	.byte	$00
	.byte	$57
	.byte	$01
	.byte	$30
	.byte	$00
	.byte	$6C
	.byte	$01
	.byte	$28
	.byte	$00
	.byte	$6D
	.byte	$01
	.byte	$20
	.byte	$00
	.byte	$70
	.byte	$01
	.byte	$80
_marathon_man_alan33_data:
	.byte	$F0
	.byte	$20
	.byte	$01
	.byte	$01
	.byte	$F0
	.byte	$18
	.byte	$1F
	.byte	$01
	.byte	$F0
	.byte	$10
	.byte	$03
	.byte	$01
	.byte	$F8
	.byte	$10
	.byte	$19
	.byte	$01
	.byte	$F8
	.byte	$08
	.byte	$0A
	.byte	$01
	.byte	$F8
	.byte	$00
	.byte	$0B
	.byte	$01
	.byte	$00
	.byte	$00
	.byte	$0C
	.byte	$01
	.byte	$00
	.byte	$08
	.byte	$28
	.byte	$01
	.byte	$F8
	.byte	$18
	.byte	$1C
	.byte	$01
	.byte	$F8
	.byte	$20
	.byte	$1B
	.byte	$01
	.byte	$08
	.byte	$00
	.byte	$20
	.byte	$01
	.byte	$08
	.byte	$08
	.byte	$27
	.byte	$01
	.byte	$00
	.byte	$10
	.byte	$2C
	.byte	$01
	.byte	$00
	.byte	$18
	.byte	$2F
	.byte	$01
	.byte	$00
	.byte	$20
	.byte	$37
	.byte	$01
	.byte	$08
	.byte	$20
	.byte	$38
	.byte	$01
	.byte	$20
	.byte	$08
	.byte	$77
	.byte	$01
	.byte	$20
	.byte	$10
	.byte	$40
	.byte	$01
	.byte	$18
	.byte	$10
	.byte	$44
	.byte	$01
	.byte	$18
	.byte	$18
	.byte	$47
	.byte	$01
	.byte	$18
	.byte	$20
	.byte	$48
	.byte	$01
	.byte	$18
	.byte	$28
	.byte	$4F
	.byte	$01
	.byte	$10
	.byte	$30
	.byte	$50
	.byte	$01
	.byte	$38
	.byte	$00
	.byte	$57
	.byte	$01
	.byte	$30
	.byte	$00
	.byte	$6C
	.byte	$01
	.byte	$28
	.byte	$00
	.byte	$6D
	.byte	$01
	.byte	$20
	.byte	$00
	.byte	$70
	.byte	$01
	.byte	$80
_marathon_man_alan44_data:
	.byte	$F0
	.byte	$20
	.byte	$01
	.byte	$01
	.byte	$F0
	.byte	$18
	.byte	$1F
	.byte	$01
	.byte	$F0
	.byte	$10
	.byte	$03
	.byte	$01
	.byte	$F8
	.byte	$10
	.byte	$19
	.byte	$01
	.byte	$F8
	.byte	$08
	.byte	$0A
	.byte	$01
	.byte	$F8
	.byte	$00
	.byte	$0B
	.byte	$01
	.byte	$00
	.byte	$00
	.byte	$0C
	.byte	$01
	.byte	$00
	.byte	$08
	.byte	$28
	.byte	$01
	.byte	$F8
	.byte	$18
	.byte	$1C
	.byte	$01
	.byte	$F8
	.byte	$20
	.byte	$1B
	.byte	$01
	.byte	$08
	.byte	$00
	.byte	$20
	.byte	$01
	.byte	$08
	.byte	$08
	.byte	$27
	.byte	$01
	.byte	$00
	.byte	$10
	.byte	$2C
	.byte	$01
	.byte	$00
	.byte	$18
	.byte	$2F
	.byte	$01
	.byte	$00
	.byte	$20
	.byte	$37
	.byte	$01
	.byte	$08
	.byte	$20
	.byte	$38
	.byte	$01
	.byte	$20
	.byte	$08
	.byte	$77
	.byte	$01
	.byte	$20
	.byte	$10
	.byte	$40
	.byte	$01
	.byte	$18
	.byte	$10
	.byte	$44
	.byte	$01
	.byte	$18
	.byte	$18
	.byte	$47
	.byte	$01
	.byte	$18
	.byte	$20
	.byte	$48
	.byte	$01
	.byte	$18
	.byte	$28
	.byte	$4F
	.byte	$01
	.byte	$10
	.byte	$30
	.byte	$50
	.byte	$01
	.byte	$38
	.byte	$00
	.byte	$57
	.byte	$01
	.byte	$30
	.byte	$00
	.byte	$6C
	.byte	$01
	.byte	$28
	.byte	$00
	.byte	$6D
	.byte	$01
	.byte	$20
	.byte	$00
	.byte	$70
	.byte	$01
	.byte	$18
	.byte	$08
	.byte	$78
	.byte	$01
	.byte	$80
_marathon_man_alan45_data:
	.byte	$F0
	.byte	$20
	.byte	$01
	.byte	$01
	.byte	$F0
	.byte	$18
	.byte	$1F
	.byte	$01
	.byte	$F0
	.byte	$10
	.byte	$03
	.byte	$01
	.byte	$F8
	.byte	$10
	.byte	$19
	.byte	$01
	.byte	$F8
	.byte	$08
	.byte	$0A
	.byte	$01
	.byte	$F8
	.byte	$00
	.byte	$0B
	.byte	$01
	.byte	$00
	.byte	$00
	.byte	$0C
	.byte	$01
	.byte	$00
	.byte	$08
	.byte	$28
	.byte	$01
	.byte	$F8
	.byte	$18
	.byte	$1C
	.byte	$01
	.byte	$F8
	.byte	$20
	.byte	$1B
	.byte	$01
	.byte	$08
	.byte	$00
	.byte	$20
	.byte	$01
	.byte	$08
	.byte	$08
	.byte	$27
	.byte	$01
	.byte	$00
	.byte	$10
	.byte	$2C
	.byte	$01
	.byte	$00
	.byte	$18
	.byte	$2F
	.byte	$01
	.byte	$00
	.byte	$20
	.byte	$37
	.byte	$01
	.byte	$08
	.byte	$20
	.byte	$38
	.byte	$01
	.byte	$20
	.byte	$08
	.byte	$77
	.byte	$01
	.byte	$20
	.byte	$10
	.byte	$40
	.byte	$01
	.byte	$18
	.byte	$10
	.byte	$44
	.byte	$01
	.byte	$18
	.byte	$18
	.byte	$47
	.byte	$01
	.byte	$18
	.byte	$20
	.byte	$48
	.byte	$01
	.byte	$18
	.byte	$28
	.byte	$4F
	.byte	$01
	.byte	$10
	.byte	$30
	.byte	$50
	.byte	$01
	.byte	$38
	.byte	$00
	.byte	$57
	.byte	$01
	.byte	$30
	.byte	$00
	.byte	$6C
	.byte	$01
	.byte	$28
	.byte	$00
	.byte	$6D
	.byte	$01
	.byte	$20
	.byte	$00
	.byte	$70
	.byte	$01
	.byte	$18
	.byte	$08
	.byte	$78
	.byte	$01
	.byte	$10
	.byte	$08
	.byte	$79
	.byte	$01
	.byte	$80
_marathon_man_alan46_data:
	.byte	$F0
	.byte	$20
	.byte	$01
	.byte	$01
	.byte	$F0
	.byte	$18
	.byte	$1F
	.byte	$01
	.byte	$F0
	.byte	$10
	.byte	$03
	.byte	$01
	.byte	$F8
	.byte	$10
	.byte	$19
	.byte	$01
	.byte	$F8
	.byte	$08
	.byte	$0A
	.byte	$01
	.byte	$F8
	.byte	$00
	.byte	$0B
	.byte	$01
	.byte	$00
	.byte	$00
	.byte	$0C
	.byte	$01
	.byte	$00
	.byte	$08
	.byte	$28
	.byte	$01
	.byte	$F8
	.byte	$18
	.byte	$1C
	.byte	$01
	.byte	$F8
	.byte	$20
	.byte	$1B
	.byte	$01
	.byte	$08
	.byte	$00
	.byte	$20
	.byte	$01
	.byte	$08
	.byte	$08
	.byte	$27
	.byte	$01
	.byte	$00
	.byte	$10
	.byte	$2C
	.byte	$01
	.byte	$00
	.byte	$18
	.byte	$2F
	.byte	$01
	.byte	$00
	.byte	$20
	.byte	$37
	.byte	$01
	.byte	$08
	.byte	$20
	.byte	$38
	.byte	$01
	.byte	$20
	.byte	$08
	.byte	$77
	.byte	$01
	.byte	$20
	.byte	$10
	.byte	$40
	.byte	$01
	.byte	$18
	.byte	$10
	.byte	$44
	.byte	$01
	.byte	$18
	.byte	$18
	.byte	$47
	.byte	$01
	.byte	$18
	.byte	$20
	.byte	$48
	.byte	$01
	.byte	$18
	.byte	$28
	.byte	$4F
	.byte	$01
	.byte	$10
	.byte	$30
	.byte	$50
	.byte	$01
	.byte	$38
	.byte	$00
	.byte	$57
	.byte	$01
	.byte	$30
	.byte	$00
	.byte	$6C
	.byte	$01
	.byte	$28
	.byte	$00
	.byte	$6D
	.byte	$01
	.byte	$20
	.byte	$00
	.byte	$70
	.byte	$01
	.byte	$18
	.byte	$08
	.byte	$78
	.byte	$01
	.byte	$10
	.byte	$08
	.byte	$79
	.byte	$01
	.byte	$20
	.byte	$18
	.byte	$7A
	.byte	$01
	.byte	$80
_marathon_man_alan47_data:
	.byte	$F0
	.byte	$20
	.byte	$01
	.byte	$01
	.byte	$F0
	.byte	$18
	.byte	$1F
	.byte	$01
	.byte	$F0
	.byte	$10
	.byte	$03
	.byte	$01
	.byte	$F8
	.byte	$10
	.byte	$19
	.byte	$01
	.byte	$F8
	.byte	$08
	.byte	$0A
	.byte	$01
	.byte	$F8
	.byte	$00
	.byte	$0B
	.byte	$01
	.byte	$00
	.byte	$00
	.byte	$0C
	.byte	$01
	.byte	$00
	.byte	$08
	.byte	$28
	.byte	$01
	.byte	$F8
	.byte	$18
	.byte	$1C
	.byte	$01
	.byte	$F8
	.byte	$20
	.byte	$1B
	.byte	$01
	.byte	$08
	.byte	$00
	.byte	$20
	.byte	$01
	.byte	$08
	.byte	$08
	.byte	$27
	.byte	$01
	.byte	$00
	.byte	$10
	.byte	$2C
	.byte	$01
	.byte	$00
	.byte	$18
	.byte	$2F
	.byte	$01
	.byte	$00
	.byte	$20
	.byte	$37
	.byte	$01
	.byte	$08
	.byte	$20
	.byte	$38
	.byte	$01
	.byte	$20
	.byte	$08
	.byte	$77
	.byte	$01
	.byte	$20
	.byte	$10
	.byte	$40
	.byte	$01
	.byte	$18
	.byte	$10
	.byte	$44
	.byte	$01
	.byte	$18
	.byte	$18
	.byte	$7D
	.byte	$01
	.byte	$18
	.byte	$20
	.byte	$48
	.byte	$01
	.byte	$18
	.byte	$28
	.byte	$4F
	.byte	$01
	.byte	$10
	.byte	$30
	.byte	$50
	.byte	$01
	.byte	$38
	.byte	$00
	.byte	$57
	.byte	$01
	.byte	$30
	.byte	$00
	.byte	$6C
	.byte	$01
	.byte	$28
	.byte	$00
	.byte	$6D
	.byte	$01
	.byte	$20
	.byte	$00
	.byte	$70
	.byte	$01
	.byte	$18
	.byte	$08
	.byte	$78
	.byte	$01
	.byte	$10
	.byte	$08
	.byte	$79
	.byte	$01
	.byte	$20
	.byte	$18
	.byte	$7A
	.byte	$01
	.byte	$80
_marathon_man_alan48_data:
	.byte	$F0
	.byte	$20
	.byte	$01
	.byte	$01
	.byte	$F0
	.byte	$18
	.byte	$1F
	.byte	$01
	.byte	$F0
	.byte	$10
	.byte	$03
	.byte	$01
	.byte	$F8
	.byte	$10
	.byte	$19
	.byte	$01
	.byte	$F8
	.byte	$08
	.byte	$0A
	.byte	$01
	.byte	$F8
	.byte	$00
	.byte	$0B
	.byte	$01
	.byte	$00
	.byte	$00
	.byte	$0C
	.byte	$01
	.byte	$00
	.byte	$08
	.byte	$28
	.byte	$01
	.byte	$F8
	.byte	$18
	.byte	$1C
	.byte	$01
	.byte	$F8
	.byte	$20
	.byte	$1B
	.byte	$01
	.byte	$08
	.byte	$00
	.byte	$20
	.byte	$01
	.byte	$08
	.byte	$08
	.byte	$27
	.byte	$01
	.byte	$00
	.byte	$10
	.byte	$2C
	.byte	$01
	.byte	$00
	.byte	$18
	.byte	$2F
	.byte	$01
	.byte	$00
	.byte	$20
	.byte	$37
	.byte	$01
	.byte	$08
	.byte	$20
	.byte	$38
	.byte	$01
	.byte	$20
	.byte	$08
	.byte	$77
	.byte	$01
	.byte	$20
	.byte	$10
	.byte	$40
	.byte	$01
	.byte	$18
	.byte	$10
	.byte	$44
	.byte	$01
	.byte	$18
	.byte	$18
	.byte	$7D
	.byte	$01
	.byte	$18
	.byte	$20
	.byte	$48
	.byte	$01
	.byte	$18
	.byte	$28
	.byte	$4F
	.byte	$01
	.byte	$10
	.byte	$30
	.byte	$50
	.byte	$01
	.byte	$38
	.byte	$00
	.byte	$57
	.byte	$01
	.byte	$30
	.byte	$00
	.byte	$6C
	.byte	$01
	.byte	$28
	.byte	$00
	.byte	$6D
	.byte	$01
	.byte	$20
	.byte	$00
	.byte	$70
	.byte	$01
	.byte	$18
	.byte	$08
	.byte	$78
	.byte	$01
	.byte	$10
	.byte	$08
	.byte	$79
	.byte	$01
	.byte	$20
	.byte	$18
	.byte	$7A
	.byte	$01
	.byte	$20
	.byte	$20
	.byte	$81
	.byte	$01
	.byte	$80
_marathon_man_alan49_data:
	.byte	$F0
	.byte	$20
	.byte	$01
	.byte	$01
	.byte	$F0
	.byte	$18
	.byte	$1F
	.byte	$01
	.byte	$F0
	.byte	$10
	.byte	$03
	.byte	$01
	.byte	$F8
	.byte	$10
	.byte	$19
	.byte	$01
	.byte	$F8
	.byte	$08
	.byte	$0A
	.byte	$01
	.byte	$F8
	.byte	$00
	.byte	$0B
	.byte	$01
	.byte	$00
	.byte	$00
	.byte	$0C
	.byte	$01
	.byte	$00
	.byte	$08
	.byte	$28
	.byte	$01
	.byte	$F8
	.byte	$18
	.byte	$1C
	.byte	$01
	.byte	$F8
	.byte	$20
	.byte	$1B
	.byte	$01
	.byte	$08
	.byte	$00
	.byte	$20
	.byte	$01
	.byte	$08
	.byte	$08
	.byte	$27
	.byte	$01
	.byte	$00
	.byte	$10
	.byte	$2C
	.byte	$01
	.byte	$00
	.byte	$18
	.byte	$2F
	.byte	$01
	.byte	$00
	.byte	$20
	.byte	$37
	.byte	$01
	.byte	$08
	.byte	$20
	.byte	$38
	.byte	$01
	.byte	$20
	.byte	$08
	.byte	$77
	.byte	$01
	.byte	$20
	.byte	$10
	.byte	$40
	.byte	$01
	.byte	$18
	.byte	$10
	.byte	$44
	.byte	$01
	.byte	$18
	.byte	$18
	.byte	$7D
	.byte	$01
	.byte	$18
	.byte	$20
	.byte	$48
	.byte	$01
	.byte	$18
	.byte	$28
	.byte	$4F
	.byte	$01
	.byte	$10
	.byte	$30
	.byte	$50
	.byte	$01
	.byte	$38
	.byte	$00
	.byte	$57
	.byte	$01
	.byte	$30
	.byte	$00
	.byte	$6C
	.byte	$01
	.byte	$28
	.byte	$00
	.byte	$6D
	.byte	$01
	.byte	$20
	.byte	$00
	.byte	$70
	.byte	$01
	.byte	$18
	.byte	$08
	.byte	$78
	.byte	$01
	.byte	$10
	.byte	$08
	.byte	$79
	.byte	$01
	.byte	$20
	.byte	$18
	.byte	$85
	.byte	$01
	.byte	$20
	.byte	$20
	.byte	$81
	.byte	$01
	.byte	$80
_marathon_man_alan50_data:
	.byte	$F0
	.byte	$20
	.byte	$01
	.byte	$01
	.byte	$F0
	.byte	$18
	.byte	$1F
	.byte	$01
	.byte	$F0
	.byte	$10
	.byte	$03
	.byte	$01
	.byte	$F8
	.byte	$10
	.byte	$19
	.byte	$01
	.byte	$F8
	.byte	$08
	.byte	$0A
	.byte	$01
	.byte	$F8
	.byte	$00
	.byte	$0B
	.byte	$01
	.byte	$00
	.byte	$00
	.byte	$0C
	.byte	$01
	.byte	$00
	.byte	$08
	.byte	$28
	.byte	$01
	.byte	$F8
	.byte	$18
	.byte	$1C
	.byte	$01
	.byte	$F8
	.byte	$20
	.byte	$1B
	.byte	$01
	.byte	$08
	.byte	$00
	.byte	$20
	.byte	$01
	.byte	$08
	.byte	$08
	.byte	$27
	.byte	$01
	.byte	$00
	.byte	$10
	.byte	$2C
	.byte	$01
	.byte	$00
	.byte	$18
	.byte	$2F
	.byte	$01
	.byte	$00
	.byte	$20
	.byte	$37
	.byte	$01
	.byte	$08
	.byte	$20
	.byte	$38
	.byte	$01
	.byte	$20
	.byte	$08
	.byte	$77
	.byte	$01
	.byte	$20
	.byte	$10
	.byte	$40
	.byte	$01
	.byte	$18
	.byte	$10
	.byte	$44
	.byte	$01
	.byte	$18
	.byte	$18
	.byte	$7D
	.byte	$01
	.byte	$18
	.byte	$20
	.byte	$48
	.byte	$01
	.byte	$18
	.byte	$28
	.byte	$4F
	.byte	$01
	.byte	$10
	.byte	$30
	.byte	$50
	.byte	$01
	.byte	$38
	.byte	$00
	.byte	$57
	.byte	$01
	.byte	$30
	.byte	$00
	.byte	$86
	.byte	$01
	.byte	$28
	.byte	$00
	.byte	$6D
	.byte	$01
	.byte	$20
	.byte	$00
	.byte	$70
	.byte	$01
	.byte	$18
	.byte	$08
	.byte	$78
	.byte	$01
	.byte	$10
	.byte	$08
	.byte	$79
	.byte	$01
	.byte	$20
	.byte	$18
	.byte	$85
	.byte	$01
	.byte	$20
	.byte	$20
	.byte	$81
	.byte	$01
	.byte	$80
_marathon_man_alan51_data:
	.byte	$F0
	.byte	$20
	.byte	$01
	.byte	$01
	.byte	$F0
	.byte	$18
	.byte	$1F
	.byte	$01
	.byte	$F0
	.byte	$10
	.byte	$03
	.byte	$01
	.byte	$F8
	.byte	$10
	.byte	$19
	.byte	$01
	.byte	$F8
	.byte	$08
	.byte	$0A
	.byte	$01
	.byte	$F8
	.byte	$00
	.byte	$0B
	.byte	$01
	.byte	$00
	.byte	$00
	.byte	$0C
	.byte	$01
	.byte	$00
	.byte	$08
	.byte	$28
	.byte	$01
	.byte	$F8
	.byte	$18
	.byte	$1C
	.byte	$01
	.byte	$F8
	.byte	$20
	.byte	$1B
	.byte	$01
	.byte	$08
	.byte	$00
	.byte	$20
	.byte	$01
	.byte	$08
	.byte	$08
	.byte	$27
	.byte	$01
	.byte	$00
	.byte	$10
	.byte	$2C
	.byte	$01
	.byte	$00
	.byte	$18
	.byte	$2F
	.byte	$01
	.byte	$00
	.byte	$20
	.byte	$37
	.byte	$01
	.byte	$08
	.byte	$20
	.byte	$38
	.byte	$01
	.byte	$20
	.byte	$08
	.byte	$77
	.byte	$01
	.byte	$20
	.byte	$10
	.byte	$40
	.byte	$01
	.byte	$18
	.byte	$10
	.byte	$44
	.byte	$01
	.byte	$18
	.byte	$18
	.byte	$7D
	.byte	$01
	.byte	$18
	.byte	$20
	.byte	$48
	.byte	$01
	.byte	$18
	.byte	$28
	.byte	$4F
	.byte	$01
	.byte	$10
	.byte	$30
	.byte	$50
	.byte	$01
	.byte	$38
	.byte	$00
	.byte	$57
	.byte	$01
	.byte	$30
	.byte	$00
	.byte	$86
	.byte	$01
	.byte	$28
	.byte	$00
	.byte	$6D
	.byte	$01
	.byte	$20
	.byte	$00
	.byte	$70
	.byte	$01
	.byte	$18
	.byte	$08
	.byte	$78
	.byte	$01
	.byte	$10
	.byte	$08
	.byte	$79
	.byte	$01
	.byte	$20
	.byte	$18
	.byte	$85
	.byte	$01
	.byte	$20
	.byte	$20
	.byte	$81
	.byte	$01
	.byte	$30
	.byte	$08
	.byte	$89
	.byte	$01
	.byte	$80
_marathon_man_alan52_data:
	.byte	$F0
	.byte	$20
	.byte	$01
	.byte	$01
	.byte	$F0
	.byte	$18
	.byte	$1F
	.byte	$01
	.byte	$F0
	.byte	$10
	.byte	$03
	.byte	$01
	.byte	$F8
	.byte	$10
	.byte	$19
	.byte	$01
	.byte	$F8
	.byte	$08
	.byte	$0A
	.byte	$01
	.byte	$F8
	.byte	$00
	.byte	$0B
	.byte	$01
	.byte	$00
	.byte	$00
	.byte	$0C
	.byte	$01
	.byte	$00
	.byte	$08
	.byte	$28
	.byte	$01
	.byte	$F8
	.byte	$18
	.byte	$1C
	.byte	$01
	.byte	$F8
	.byte	$20
	.byte	$1B
	.byte	$01
	.byte	$08
	.byte	$00
	.byte	$20
	.byte	$01
	.byte	$08
	.byte	$08
	.byte	$27
	.byte	$01
	.byte	$00
	.byte	$10
	.byte	$2C
	.byte	$01
	.byte	$00
	.byte	$18
	.byte	$2F
	.byte	$01
	.byte	$00
	.byte	$20
	.byte	$37
	.byte	$01
	.byte	$08
	.byte	$20
	.byte	$38
	.byte	$01
	.byte	$20
	.byte	$08
	.byte	$77
	.byte	$01
	.byte	$20
	.byte	$10
	.byte	$40
	.byte	$01
	.byte	$18
	.byte	$10
	.byte	$44
	.byte	$01
	.byte	$18
	.byte	$18
	.byte	$7D
	.byte	$01
	.byte	$18
	.byte	$20
	.byte	$48
	.byte	$01
	.byte	$18
	.byte	$28
	.byte	$4F
	.byte	$01
	.byte	$10
	.byte	$30
	.byte	$50
	.byte	$01
	.byte	$38
	.byte	$00
	.byte	$57
	.byte	$01
	.byte	$30
	.byte	$00
	.byte	$86
	.byte	$01
	.byte	$28
	.byte	$00
	.byte	$6D
	.byte	$01
	.byte	$20
	.byte	$00
	.byte	$70
	.byte	$01
	.byte	$18
	.byte	$08
	.byte	$78
	.byte	$01
	.byte	$10
	.byte	$08
	.byte	$79
	.byte	$01
	.byte	$20
	.byte	$18
	.byte	$85
	.byte	$01
	.byte	$20
	.byte	$20
	.byte	$81
	.byte	$01
	.byte	$30
	.byte	$08
	.byte	$89
	.byte	$01
	.byte	$30
	.byte	$10
	.byte	$03
	.byte	$C1
	.byte	$80
_marathon_man_alan53_data:
	.byte	$F0
	.byte	$20
	.byte	$01
	.byte	$01
	.byte	$F0
	.byte	$18
	.byte	$1F
	.byte	$01
	.byte	$F0
	.byte	$10
	.byte	$03
	.byte	$01
	.byte	$F8
	.byte	$10
	.byte	$19
	.byte	$01
	.byte	$F8
	.byte	$08
	.byte	$0A
	.byte	$01
	.byte	$F8
	.byte	$00
	.byte	$0B
	.byte	$01
	.byte	$00
	.byte	$00
	.byte	$0C
	.byte	$01
	.byte	$00
	.byte	$08
	.byte	$28
	.byte	$01
	.byte	$F8
	.byte	$18
	.byte	$1C
	.byte	$01
	.byte	$F8
	.byte	$20
	.byte	$1B
	.byte	$01
	.byte	$08
	.byte	$00
	.byte	$20
	.byte	$01
	.byte	$08
	.byte	$08
	.byte	$27
	.byte	$01
	.byte	$00
	.byte	$10
	.byte	$2C
	.byte	$01
	.byte	$00
	.byte	$18
	.byte	$2F
	.byte	$01
	.byte	$00
	.byte	$20
	.byte	$37
	.byte	$01
	.byte	$08
	.byte	$20
	.byte	$38
	.byte	$01
	.byte	$20
	.byte	$08
	.byte	$77
	.byte	$01
	.byte	$20
	.byte	$10
	.byte	$40
	.byte	$01
	.byte	$18
	.byte	$10
	.byte	$44
	.byte	$01
	.byte	$18
	.byte	$18
	.byte	$7D
	.byte	$01
	.byte	$18
	.byte	$20
	.byte	$48
	.byte	$01
	.byte	$18
	.byte	$28
	.byte	$4F
	.byte	$01
	.byte	$10
	.byte	$30
	.byte	$50
	.byte	$01
	.byte	$38
	.byte	$00
	.byte	$57
	.byte	$01
	.byte	$30
	.byte	$00
	.byte	$86
	.byte	$01
	.byte	$28
	.byte	$00
	.byte	$6D
	.byte	$01
	.byte	$20
	.byte	$00
	.byte	$70
	.byte	$01
	.byte	$18
	.byte	$08
	.byte	$78
	.byte	$01
	.byte	$10
	.byte	$08
	.byte	$79
	.byte	$01
	.byte	$20
	.byte	$18
	.byte	$85
	.byte	$01
	.byte	$20
	.byte	$20
	.byte	$81
	.byte	$01
	.byte	$30
	.byte	$08
	.byte	$89
	.byte	$01
	.byte	$30
	.byte	$10
	.byte	$03
	.byte	$C1
	.byte	$28
	.byte	$10
	.byte	$8D
	.byte	$01
	.byte	$80
_marathon_man_alan54_data:
	.byte	$F0
	.byte	$20
	.byte	$01
	.byte	$01
	.byte	$F0
	.byte	$18
	.byte	$1F
	.byte	$01
	.byte	$F0
	.byte	$10
	.byte	$03
	.byte	$01
	.byte	$F8
	.byte	$10
	.byte	$19
	.byte	$01
	.byte	$F8
	.byte	$08
	.byte	$0A
	.byte	$01
	.byte	$F8
	.byte	$00
	.byte	$0B
	.byte	$01
	.byte	$00
	.byte	$00
	.byte	$0C
	.byte	$01
	.byte	$00
	.byte	$08
	.byte	$28
	.byte	$01
	.byte	$F8
	.byte	$18
	.byte	$1C
	.byte	$01
	.byte	$F8
	.byte	$20
	.byte	$1B
	.byte	$01
	.byte	$08
	.byte	$00
	.byte	$20
	.byte	$01
	.byte	$08
	.byte	$08
	.byte	$27
	.byte	$01
	.byte	$00
	.byte	$10
	.byte	$2C
	.byte	$01
	.byte	$00
	.byte	$18
	.byte	$2F
	.byte	$01
	.byte	$00
	.byte	$20
	.byte	$37
	.byte	$01
	.byte	$08
	.byte	$20
	.byte	$38
	.byte	$01
	.byte	$20
	.byte	$08
	.byte	$77
	.byte	$01
	.byte	$20
	.byte	$10
	.byte	$40
	.byte	$01
	.byte	$18
	.byte	$10
	.byte	$44
	.byte	$01
	.byte	$18
	.byte	$18
	.byte	$7D
	.byte	$01
	.byte	$18
	.byte	$20
	.byte	$48
	.byte	$01
	.byte	$18
	.byte	$28
	.byte	$4F
	.byte	$01
	.byte	$10
	.byte	$30
	.byte	$50
	.byte	$01
	.byte	$38
	.byte	$00
	.byte	$57
	.byte	$01
	.byte	$30
	.byte	$00
	.byte	$86
	.byte	$01
	.byte	$28
	.byte	$00
	.byte	$6D
	.byte	$01
	.byte	$20
	.byte	$00
	.byte	$70
	.byte	$01
	.byte	$18
	.byte	$08
	.byte	$78
	.byte	$01
	.byte	$10
	.byte	$08
	.byte	$79
	.byte	$01
	.byte	$20
	.byte	$18
	.byte	$85
	.byte	$01
	.byte	$20
	.byte	$20
	.byte	$81
	.byte	$01
	.byte	$30
	.byte	$08
	.byte	$89
	.byte	$01
	.byte	$30
	.byte	$10
	.byte	$03
	.byte	$C1
	.byte	$28
	.byte	$10
	.byte	$8D
	.byte	$01
	.byte	$28
	.byte	$18
	.byte	$99
	.byte	$01
	.byte	$80
_marathon_man_alan55_data:
	.byte	$F0
	.byte	$20
	.byte	$01
	.byte	$01
	.byte	$F0
	.byte	$18
	.byte	$1F
	.byte	$01
	.byte	$F0
	.byte	$10
	.byte	$03
	.byte	$01
	.byte	$F8
	.byte	$10
	.byte	$19
	.byte	$01
	.byte	$F8
	.byte	$08
	.byte	$0A
	.byte	$01
	.byte	$F8
	.byte	$00
	.byte	$0B
	.byte	$01
	.byte	$00
	.byte	$00
	.byte	$0C
	.byte	$01
	.byte	$00
	.byte	$08
	.byte	$28
	.byte	$01
	.byte	$F8
	.byte	$18
	.byte	$1C
	.byte	$01
	.byte	$F8
	.byte	$20
	.byte	$1B
	.byte	$01
	.byte	$08
	.byte	$00
	.byte	$20
	.byte	$01
	.byte	$08
	.byte	$08
	.byte	$27
	.byte	$01
	.byte	$00
	.byte	$10
	.byte	$2C
	.byte	$01
	.byte	$00
	.byte	$18
	.byte	$2F
	.byte	$01
	.byte	$00
	.byte	$20
	.byte	$37
	.byte	$01
	.byte	$08
	.byte	$20
	.byte	$38
	.byte	$01
	.byte	$20
	.byte	$08
	.byte	$77
	.byte	$01
	.byte	$20
	.byte	$10
	.byte	$40
	.byte	$01
	.byte	$18
	.byte	$10
	.byte	$44
	.byte	$01
	.byte	$18
	.byte	$18
	.byte	$7D
	.byte	$01
	.byte	$18
	.byte	$20
	.byte	$48
	.byte	$01
	.byte	$18
	.byte	$28
	.byte	$4F
	.byte	$01
	.byte	$10
	.byte	$30
	.byte	$50
	.byte	$01
	.byte	$38
	.byte	$00
	.byte	$57
	.byte	$01
	.byte	$30
	.byte	$00
	.byte	$86
	.byte	$01
	.byte	$28
	.byte	$00
	.byte	$6D
	.byte	$01
	.byte	$20
	.byte	$00
	.byte	$70
	.byte	$01
	.byte	$18
	.byte	$08
	.byte	$78
	.byte	$01
	.byte	$10
	.byte	$08
	.byte	$79
	.byte	$01
	.byte	$20
	.byte	$18
	.byte	$85
	.byte	$01
	.byte	$20
	.byte	$20
	.byte	$81
	.byte	$01
	.byte	$30
	.byte	$08
	.byte	$89
	.byte	$01
	.byte	$30
	.byte	$10
	.byte	$03
	.byte	$C1
	.byte	$28
	.byte	$10
	.byte	$8D
	.byte	$01
	.byte	$28
	.byte	$18
	.byte	$99
	.byte	$01
	.byte	$28
	.byte	$20
	.byte	$A3
	.byte	$01
	.byte	$80
_marathon_man_alan56_data:
	.byte	$F0
	.byte	$20
	.byte	$01
	.byte	$01
	.byte	$F0
	.byte	$18
	.byte	$1F
	.byte	$01
	.byte	$F0
	.byte	$10
	.byte	$03
	.byte	$01
	.byte	$F8
	.byte	$10
	.byte	$19
	.byte	$01
	.byte	$F8
	.byte	$08
	.byte	$0A
	.byte	$01
	.byte	$F8
	.byte	$00
	.byte	$0B
	.byte	$01
	.byte	$00
	.byte	$00
	.byte	$0C
	.byte	$01
	.byte	$00
	.byte	$08
	.byte	$28
	.byte	$01
	.byte	$F8
	.byte	$18
	.byte	$1C
	.byte	$01
	.byte	$F8
	.byte	$20
	.byte	$1B
	.byte	$01
	.byte	$08
	.byte	$00
	.byte	$20
	.byte	$01
	.byte	$08
	.byte	$08
	.byte	$27
	.byte	$01
	.byte	$00
	.byte	$10
	.byte	$2C
	.byte	$01
	.byte	$00
	.byte	$18
	.byte	$2F
	.byte	$01
	.byte	$00
	.byte	$20
	.byte	$37
	.byte	$01
	.byte	$08
	.byte	$20
	.byte	$38
	.byte	$01
	.byte	$20
	.byte	$08
	.byte	$77
	.byte	$01
	.byte	$20
	.byte	$10
	.byte	$40
	.byte	$01
	.byte	$18
	.byte	$10
	.byte	$44
	.byte	$01
	.byte	$18
	.byte	$18
	.byte	$7D
	.byte	$01
	.byte	$18
	.byte	$20
	.byte	$48
	.byte	$01
	.byte	$18
	.byte	$28
	.byte	$4F
	.byte	$01
	.byte	$10
	.byte	$30
	.byte	$50
	.byte	$01
	.byte	$38
	.byte	$00
	.byte	$57
	.byte	$01
	.byte	$30
	.byte	$00
	.byte	$86
	.byte	$01
	.byte	$28
	.byte	$00
	.byte	$6D
	.byte	$01
	.byte	$20
	.byte	$00
	.byte	$70
	.byte	$01
	.byte	$18
	.byte	$08
	.byte	$78
	.byte	$01
	.byte	$10
	.byte	$08
	.byte	$79
	.byte	$01
	.byte	$20
	.byte	$18
	.byte	$85
	.byte	$01
	.byte	$20
	.byte	$20
	.byte	$81
	.byte	$01
	.byte	$30
	.byte	$08
	.byte	$89
	.byte	$01
	.byte	$30
	.byte	$10
	.byte	$03
	.byte	$C1
	.byte	$28
	.byte	$10
	.byte	$8D
	.byte	$01
	.byte	$28
	.byte	$18
	.byte	$A4
	.byte	$01
	.byte	$28
	.byte	$20
	.byte	$A3
	.byte	$01
	.byte	$80
_marathon_man_alan57_data:
	.byte	$F0
	.byte	$20
	.byte	$01
	.byte	$01
	.byte	$F0
	.byte	$18
	.byte	$1F
	.byte	$01
	.byte	$F0
	.byte	$10
	.byte	$03
	.byte	$01
	.byte	$F8
	.byte	$10
	.byte	$19
	.byte	$01
	.byte	$F8
	.byte	$08
	.byte	$0A
	.byte	$01
	.byte	$F8
	.byte	$00
	.byte	$0B
	.byte	$01
	.byte	$00
	.byte	$00
	.byte	$0C
	.byte	$01
	.byte	$00
	.byte	$08
	.byte	$28
	.byte	$01
	.byte	$F8
	.byte	$18
	.byte	$1C
	.byte	$01
	.byte	$F8
	.byte	$20
	.byte	$1B
	.byte	$01
	.byte	$08
	.byte	$00
	.byte	$20
	.byte	$01
	.byte	$08
	.byte	$08
	.byte	$27
	.byte	$01
	.byte	$00
	.byte	$10
	.byte	$2C
	.byte	$01
	.byte	$00
	.byte	$18
	.byte	$2F
	.byte	$01
	.byte	$00
	.byte	$20
	.byte	$37
	.byte	$01
	.byte	$08
	.byte	$20
	.byte	$38
	.byte	$01
	.byte	$20
	.byte	$08
	.byte	$77
	.byte	$01
	.byte	$20
	.byte	$10
	.byte	$40
	.byte	$01
	.byte	$18
	.byte	$10
	.byte	$44
	.byte	$01
	.byte	$18
	.byte	$18
	.byte	$7D
	.byte	$01
	.byte	$18
	.byte	$20
	.byte	$48
	.byte	$01
	.byte	$18
	.byte	$28
	.byte	$4F
	.byte	$01
	.byte	$10
	.byte	$30
	.byte	$50
	.byte	$01
	.byte	$38
	.byte	$00
	.byte	$57
	.byte	$01
	.byte	$30
	.byte	$00
	.byte	$86
	.byte	$01
	.byte	$28
	.byte	$00
	.byte	$6D
	.byte	$01
	.byte	$20
	.byte	$00
	.byte	$70
	.byte	$01
	.byte	$18
	.byte	$08
	.byte	$78
	.byte	$01
	.byte	$10
	.byte	$08
	.byte	$79
	.byte	$01
	.byte	$20
	.byte	$18
	.byte	$85
	.byte	$01
	.byte	$20
	.byte	$20
	.byte	$81
	.byte	$01
	.byte	$30
	.byte	$08
	.byte	$89
	.byte	$01
	.byte	$30
	.byte	$10
	.byte	$03
	.byte	$C1
	.byte	$28
	.byte	$10
	.byte	$8D
	.byte	$01
	.byte	$28
	.byte	$18
	.byte	$A4
	.byte	$01
	.byte	$28
	.byte	$20
	.byte	$A3
	.byte	$01
	.byte	$30
	.byte	$18
	.byte	$A9
	.byte	$01
	.byte	$80
_marathon_man_alan58_data:
	.byte	$F0
	.byte	$20
	.byte	$01
	.byte	$01
	.byte	$F0
	.byte	$18
	.byte	$1F
	.byte	$01
	.byte	$F0
	.byte	$10
	.byte	$03
	.byte	$01
	.byte	$F8
	.byte	$10
	.byte	$19
	.byte	$01
	.byte	$F8
	.byte	$08
	.byte	$0A
	.byte	$01
	.byte	$F8
	.byte	$00
	.byte	$0B
	.byte	$01
	.byte	$00
	.byte	$00
	.byte	$0C
	.byte	$01
	.byte	$00
	.byte	$08
	.byte	$28
	.byte	$01
	.byte	$F8
	.byte	$18
	.byte	$1C
	.byte	$01
	.byte	$F8
	.byte	$20
	.byte	$1B
	.byte	$01
	.byte	$08
	.byte	$00
	.byte	$20
	.byte	$01
	.byte	$08
	.byte	$08
	.byte	$27
	.byte	$01
	.byte	$00
	.byte	$10
	.byte	$2C
	.byte	$01
	.byte	$00
	.byte	$18
	.byte	$2F
	.byte	$01
	.byte	$00
	.byte	$20
	.byte	$37
	.byte	$01
	.byte	$08
	.byte	$20
	.byte	$38
	.byte	$01
	.byte	$20
	.byte	$08
	.byte	$77
	.byte	$01
	.byte	$20
	.byte	$10
	.byte	$40
	.byte	$01
	.byte	$18
	.byte	$10
	.byte	$44
	.byte	$01
	.byte	$18
	.byte	$18
	.byte	$7D
	.byte	$01
	.byte	$18
	.byte	$20
	.byte	$48
	.byte	$01
	.byte	$18
	.byte	$28
	.byte	$4F
	.byte	$01
	.byte	$10
	.byte	$30
	.byte	$50
	.byte	$01
	.byte	$38
	.byte	$00
	.byte	$57
	.byte	$01
	.byte	$30
	.byte	$00
	.byte	$86
	.byte	$01
	.byte	$28
	.byte	$00
	.byte	$6D
	.byte	$01
	.byte	$20
	.byte	$00
	.byte	$70
	.byte	$01
	.byte	$18
	.byte	$08
	.byte	$78
	.byte	$01
	.byte	$10
	.byte	$08
	.byte	$79
	.byte	$01
	.byte	$20
	.byte	$18
	.byte	$85
	.byte	$01
	.byte	$20
	.byte	$20
	.byte	$81
	.byte	$01
	.byte	$30
	.byte	$08
	.byte	$89
	.byte	$01
	.byte	$30
	.byte	$10
	.byte	$03
	.byte	$C1
	.byte	$28
	.byte	$10
	.byte	$8D
	.byte	$01
	.byte	$28
	.byte	$18
	.byte	$A4
	.byte	$01
	.byte	$28
	.byte	$20
	.byte	$A3
	.byte	$01
	.byte	$30
	.byte	$18
	.byte	$AC
	.byte	$01
	.byte	$80
_marathon_man_alan59_data:
	.byte	$F0
	.byte	$20
	.byte	$01
	.byte	$01
	.byte	$F0
	.byte	$18
	.byte	$1F
	.byte	$01
	.byte	$F0
	.byte	$10
	.byte	$03
	.byte	$01
	.byte	$F8
	.byte	$10
	.byte	$19
	.byte	$01
	.byte	$F8
	.byte	$08
	.byte	$0A
	.byte	$01
	.byte	$F8
	.byte	$00
	.byte	$0B
	.byte	$01
	.byte	$00
	.byte	$00
	.byte	$0C
	.byte	$01
	.byte	$00
	.byte	$08
	.byte	$28
	.byte	$01
	.byte	$F8
	.byte	$18
	.byte	$1C
	.byte	$01
	.byte	$F8
	.byte	$20
	.byte	$1B
	.byte	$01
	.byte	$08
	.byte	$00
	.byte	$20
	.byte	$01
	.byte	$08
	.byte	$08
	.byte	$27
	.byte	$01
	.byte	$00
	.byte	$10
	.byte	$2C
	.byte	$01
	.byte	$00
	.byte	$18
	.byte	$2F
	.byte	$01
	.byte	$00
	.byte	$20
	.byte	$37
	.byte	$01
	.byte	$08
	.byte	$20
	.byte	$38
	.byte	$01
	.byte	$20
	.byte	$08
	.byte	$77
	.byte	$01
	.byte	$20
	.byte	$10
	.byte	$40
	.byte	$01
	.byte	$18
	.byte	$10
	.byte	$44
	.byte	$01
	.byte	$18
	.byte	$18
	.byte	$7D
	.byte	$01
	.byte	$18
	.byte	$20
	.byte	$48
	.byte	$01
	.byte	$18
	.byte	$28
	.byte	$4F
	.byte	$01
	.byte	$10
	.byte	$30
	.byte	$50
	.byte	$01
	.byte	$38
	.byte	$00
	.byte	$57
	.byte	$01
	.byte	$30
	.byte	$00
	.byte	$86
	.byte	$01
	.byte	$28
	.byte	$00
	.byte	$6D
	.byte	$01
	.byte	$20
	.byte	$00
	.byte	$70
	.byte	$01
	.byte	$18
	.byte	$08
	.byte	$78
	.byte	$01
	.byte	$10
	.byte	$08
	.byte	$79
	.byte	$01
	.byte	$20
	.byte	$18
	.byte	$85
	.byte	$01
	.byte	$20
	.byte	$20
	.byte	$81
	.byte	$01
	.byte	$30
	.byte	$08
	.byte	$89
	.byte	$01
	.byte	$30
	.byte	$10
	.byte	$03
	.byte	$C1
	.byte	$28
	.byte	$10
	.byte	$8D
	.byte	$01
	.byte	$28
	.byte	$18
	.byte	$A4
	.byte	$01
	.byte	$28
	.byte	$20
	.byte	$A3
	.byte	$01
	.byte	$30
	.byte	$18
	.byte	$AC
	.byte	$01
	.byte	$38
	.byte	$18
	.byte	$B3
	.byte	$01
	.byte	$80
_marathon_man_alan60_data:
	.byte	$F0
	.byte	$20
	.byte	$01
	.byte	$01
	.byte	$F0
	.byte	$18
	.byte	$1F
	.byte	$01
	.byte	$F0
	.byte	$10
	.byte	$03
	.byte	$01
	.byte	$F8
	.byte	$10
	.byte	$19
	.byte	$01
	.byte	$F8
	.byte	$08
	.byte	$0A
	.byte	$01
	.byte	$F8
	.byte	$00
	.byte	$0B
	.byte	$01
	.byte	$00
	.byte	$00
	.byte	$0C
	.byte	$01
	.byte	$00
	.byte	$08
	.byte	$28
	.byte	$01
	.byte	$F8
	.byte	$18
	.byte	$1C
	.byte	$01
	.byte	$F8
	.byte	$20
	.byte	$1B
	.byte	$01
	.byte	$08
	.byte	$00
	.byte	$20
	.byte	$01
	.byte	$08
	.byte	$08
	.byte	$27
	.byte	$01
	.byte	$00
	.byte	$10
	.byte	$2C
	.byte	$01
	.byte	$00
	.byte	$18
	.byte	$2F
	.byte	$01
	.byte	$00
	.byte	$20
	.byte	$37
	.byte	$01
	.byte	$08
	.byte	$20
	.byte	$38
	.byte	$01
	.byte	$20
	.byte	$08
	.byte	$77
	.byte	$01
	.byte	$20
	.byte	$10
	.byte	$40
	.byte	$01
	.byte	$18
	.byte	$10
	.byte	$44
	.byte	$01
	.byte	$18
	.byte	$18
	.byte	$7D
	.byte	$01
	.byte	$18
	.byte	$20
	.byte	$48
	.byte	$01
	.byte	$18
	.byte	$28
	.byte	$4F
	.byte	$01
	.byte	$10
	.byte	$30
	.byte	$50
	.byte	$01
	.byte	$38
	.byte	$00
	.byte	$57
	.byte	$01
	.byte	$30
	.byte	$00
	.byte	$86
	.byte	$01
	.byte	$28
	.byte	$00
	.byte	$6D
	.byte	$01
	.byte	$20
	.byte	$00
	.byte	$70
	.byte	$01
	.byte	$18
	.byte	$08
	.byte	$78
	.byte	$01
	.byte	$10
	.byte	$08
	.byte	$79
	.byte	$01
	.byte	$20
	.byte	$18
	.byte	$85
	.byte	$01
	.byte	$20
	.byte	$20
	.byte	$81
	.byte	$01
	.byte	$30
	.byte	$08
	.byte	$89
	.byte	$01
	.byte	$30
	.byte	$10
	.byte	$03
	.byte	$C1
	.byte	$28
	.byte	$10
	.byte	$8D
	.byte	$01
	.byte	$28
	.byte	$18
	.byte	$A4
	.byte	$01
	.byte	$28
	.byte	$20
	.byte	$A3
	.byte	$01
	.byte	$30
	.byte	$18
	.byte	$AC
	.byte	$01
	.byte	$38
	.byte	$18
	.byte	$B3
	.byte	$01
	.byte	$38
	.byte	$10
	.byte	$BC
	.byte	$01
	.byte	$80
_marathon_man_alan61_data:
	.byte	$F0
	.byte	$20
	.byte	$01
	.byte	$01
	.byte	$F0
	.byte	$18
	.byte	$1F
	.byte	$01
	.byte	$F0
	.byte	$10
	.byte	$03
	.byte	$01
	.byte	$F8
	.byte	$10
	.byte	$19
	.byte	$01
	.byte	$F8
	.byte	$08
	.byte	$0A
	.byte	$01
	.byte	$F8
	.byte	$00
	.byte	$0B
	.byte	$01
	.byte	$00
	.byte	$00
	.byte	$0C
	.byte	$01
	.byte	$00
	.byte	$08
	.byte	$28
	.byte	$01
	.byte	$F8
	.byte	$18
	.byte	$1C
	.byte	$01
	.byte	$F8
	.byte	$20
	.byte	$1B
	.byte	$01
	.byte	$08
	.byte	$00
	.byte	$20
	.byte	$01
	.byte	$08
	.byte	$08
	.byte	$27
	.byte	$01
	.byte	$00
	.byte	$10
	.byte	$2C
	.byte	$01
	.byte	$00
	.byte	$18
	.byte	$2F
	.byte	$01
	.byte	$00
	.byte	$20
	.byte	$37
	.byte	$01
	.byte	$08
	.byte	$20
	.byte	$38
	.byte	$01
	.byte	$20
	.byte	$08
	.byte	$77
	.byte	$01
	.byte	$20
	.byte	$10
	.byte	$40
	.byte	$01
	.byte	$18
	.byte	$10
	.byte	$44
	.byte	$01
	.byte	$18
	.byte	$18
	.byte	$7D
	.byte	$01
	.byte	$18
	.byte	$20
	.byte	$48
	.byte	$01
	.byte	$18
	.byte	$28
	.byte	$4F
	.byte	$01
	.byte	$10
	.byte	$30
	.byte	$50
	.byte	$01
	.byte	$38
	.byte	$00
	.byte	$57
	.byte	$01
	.byte	$30
	.byte	$00
	.byte	$86
	.byte	$01
	.byte	$28
	.byte	$00
	.byte	$6D
	.byte	$01
	.byte	$20
	.byte	$00
	.byte	$70
	.byte	$01
	.byte	$18
	.byte	$08
	.byte	$78
	.byte	$01
	.byte	$10
	.byte	$08
	.byte	$79
	.byte	$01
	.byte	$20
	.byte	$18
	.byte	$85
	.byte	$01
	.byte	$20
	.byte	$20
	.byte	$81
	.byte	$01
	.byte	$30
	.byte	$08
	.byte	$89
	.byte	$01
	.byte	$30
	.byte	$10
	.byte	$03
	.byte	$C1
	.byte	$28
	.byte	$10
	.byte	$8D
	.byte	$01
	.byte	$28
	.byte	$18
	.byte	$A4
	.byte	$01
	.byte	$28
	.byte	$20
	.byte	$A3
	.byte	$01
	.byte	$30
	.byte	$18
	.byte	$AC
	.byte	$01
	.byte	$38
	.byte	$18
	.byte	$C0
	.byte	$01
	.byte	$38
	.byte	$10
	.byte	$BC
	.byte	$01
	.byte	$80
_marathon_man_alan62_data:
	.byte	$F0
	.byte	$20
	.byte	$01
	.byte	$01
	.byte	$F0
	.byte	$18
	.byte	$1F
	.byte	$01
	.byte	$F0
	.byte	$10
	.byte	$03
	.byte	$01
	.byte	$F8
	.byte	$10
	.byte	$19
	.byte	$01
	.byte	$F8
	.byte	$08
	.byte	$0A
	.byte	$01
	.byte	$F8
	.byte	$00
	.byte	$0B
	.byte	$01
	.byte	$00
	.byte	$00
	.byte	$0C
	.byte	$01
	.byte	$00
	.byte	$08
	.byte	$28
	.byte	$01
	.byte	$F8
	.byte	$18
	.byte	$1C
	.byte	$01
	.byte	$F8
	.byte	$20
	.byte	$1B
	.byte	$01
	.byte	$08
	.byte	$00
	.byte	$20
	.byte	$01
	.byte	$08
	.byte	$08
	.byte	$27
	.byte	$01
	.byte	$00
	.byte	$10
	.byte	$2C
	.byte	$01
	.byte	$00
	.byte	$18
	.byte	$2F
	.byte	$01
	.byte	$00
	.byte	$20
	.byte	$37
	.byte	$01
	.byte	$08
	.byte	$20
	.byte	$38
	.byte	$01
	.byte	$20
	.byte	$08
	.byte	$77
	.byte	$01
	.byte	$20
	.byte	$10
	.byte	$40
	.byte	$01
	.byte	$18
	.byte	$10
	.byte	$44
	.byte	$01
	.byte	$18
	.byte	$18
	.byte	$7D
	.byte	$01
	.byte	$18
	.byte	$20
	.byte	$48
	.byte	$01
	.byte	$18
	.byte	$28
	.byte	$4F
	.byte	$01
	.byte	$10
	.byte	$30
	.byte	$50
	.byte	$01
	.byte	$38
	.byte	$00
	.byte	$57
	.byte	$01
	.byte	$30
	.byte	$00
	.byte	$86
	.byte	$01
	.byte	$28
	.byte	$00
	.byte	$6D
	.byte	$01
	.byte	$20
	.byte	$00
	.byte	$70
	.byte	$01
	.byte	$18
	.byte	$08
	.byte	$78
	.byte	$01
	.byte	$10
	.byte	$08
	.byte	$79
	.byte	$01
	.byte	$20
	.byte	$18
	.byte	$85
	.byte	$01
	.byte	$20
	.byte	$20
	.byte	$81
	.byte	$01
	.byte	$30
	.byte	$08
	.byte	$89
	.byte	$01
	.byte	$30
	.byte	$10
	.byte	$03
	.byte	$C1
	.byte	$28
	.byte	$10
	.byte	$8D
	.byte	$01
	.byte	$28
	.byte	$18
	.byte	$A4
	.byte	$01
	.byte	$28
	.byte	$20
	.byte	$A3
	.byte	$01
	.byte	$30
	.byte	$18
	.byte	$C3
	.byte	$01
	.byte	$38
	.byte	$18
	.byte	$C0
	.byte	$01
	.byte	$38
	.byte	$10
	.byte	$BC
	.byte	$01
	.byte	$80
_marathon_man_alan63_data:
	.byte	$F0
	.byte	$20
	.byte	$01
	.byte	$01
	.byte	$F0
	.byte	$18
	.byte	$1F
	.byte	$01
	.byte	$F0
	.byte	$10
	.byte	$03
	.byte	$01
	.byte	$F8
	.byte	$10
	.byte	$19
	.byte	$01
	.byte	$F8
	.byte	$08
	.byte	$0A
	.byte	$01
	.byte	$F8
	.byte	$00
	.byte	$0B
	.byte	$01
	.byte	$00
	.byte	$00
	.byte	$0C
	.byte	$01
	.byte	$00
	.byte	$08
	.byte	$28
	.byte	$01
	.byte	$F8
	.byte	$18
	.byte	$1C
	.byte	$01
	.byte	$F8
	.byte	$20
	.byte	$1B
	.byte	$01
	.byte	$08
	.byte	$00
	.byte	$20
	.byte	$01
	.byte	$08
	.byte	$08
	.byte	$27
	.byte	$01
	.byte	$00
	.byte	$10
	.byte	$2C
	.byte	$01
	.byte	$00
	.byte	$18
	.byte	$2F
	.byte	$01
	.byte	$00
	.byte	$20
	.byte	$37
	.byte	$01
	.byte	$08
	.byte	$20
	.byte	$38
	.byte	$01
	.byte	$20
	.byte	$08
	.byte	$77
	.byte	$01
	.byte	$20
	.byte	$10
	.byte	$40
	.byte	$01
	.byte	$18
	.byte	$10
	.byte	$44
	.byte	$01
	.byte	$18
	.byte	$18
	.byte	$7D
	.byte	$01
	.byte	$18
	.byte	$20
	.byte	$48
	.byte	$01
	.byte	$18
	.byte	$28
	.byte	$4F
	.byte	$01
	.byte	$10
	.byte	$30
	.byte	$50
	.byte	$01
	.byte	$38
	.byte	$00
	.byte	$57
	.byte	$01
	.byte	$30
	.byte	$00
	.byte	$86
	.byte	$01
	.byte	$28
	.byte	$00
	.byte	$6D
	.byte	$01
	.byte	$20
	.byte	$00
	.byte	$70
	.byte	$01
	.byte	$18
	.byte	$08
	.byte	$78
	.byte	$01
	.byte	$10
	.byte	$08
	.byte	$79
	.byte	$01
	.byte	$20
	.byte	$18
	.byte	$85
	.byte	$01
	.byte	$20
	.byte	$20
	.byte	$81
	.byte	$01
	.byte	$30
	.byte	$08
	.byte	$89
	.byte	$01
	.byte	$30
	.byte	$10
	.byte	$03
	.byte	$C1
	.byte	$28
	.byte	$10
	.byte	$8D
	.byte	$01
	.byte	$28
	.byte	$18
	.byte	$A4
	.byte	$01
	.byte	$28
	.byte	$20
	.byte	$A3
	.byte	$01
	.byte	$30
	.byte	$18
	.byte	$C3
	.byte	$01
	.byte	$38
	.byte	$18
	.byte	$C0
	.byte	$01
	.byte	$38
	.byte	$10
	.byte	$BC
	.byte	$01
	.byte	$30
	.byte	$20
	.byte	$C4
	.byte	$01
	.byte	$80
_marathon_man_alan64_data:
	.byte	$F0
	.byte	$20
	.byte	$01
	.byte	$01
	.byte	$F0
	.byte	$18
	.byte	$1F
	.byte	$01
	.byte	$F0
	.byte	$10
	.byte	$03
	.byte	$01
	.byte	$F8
	.byte	$10
	.byte	$19
	.byte	$01
	.byte	$F8
	.byte	$08
	.byte	$0A
	.byte	$01
	.byte	$F8
	.byte	$00
	.byte	$0B
	.byte	$01
	.byte	$00
	.byte	$00
	.byte	$0C
	.byte	$01
	.byte	$00
	.byte	$08
	.byte	$28
	.byte	$01
	.byte	$F8
	.byte	$18
	.byte	$1C
	.byte	$01
	.byte	$F8
	.byte	$20
	.byte	$1B
	.byte	$01
	.byte	$08
	.byte	$00
	.byte	$20
	.byte	$01
	.byte	$08
	.byte	$08
	.byte	$27
	.byte	$01
	.byte	$00
	.byte	$10
	.byte	$2C
	.byte	$01
	.byte	$00
	.byte	$18
	.byte	$2F
	.byte	$01
	.byte	$00
	.byte	$20
	.byte	$37
	.byte	$01
	.byte	$08
	.byte	$20
	.byte	$38
	.byte	$01
	.byte	$20
	.byte	$08
	.byte	$77
	.byte	$01
	.byte	$20
	.byte	$10
	.byte	$40
	.byte	$01
	.byte	$18
	.byte	$10
	.byte	$44
	.byte	$01
	.byte	$18
	.byte	$18
	.byte	$7D
	.byte	$01
	.byte	$18
	.byte	$20
	.byte	$48
	.byte	$01
	.byte	$18
	.byte	$28
	.byte	$4F
	.byte	$01
	.byte	$10
	.byte	$30
	.byte	$50
	.byte	$01
	.byte	$38
	.byte	$00
	.byte	$57
	.byte	$01
	.byte	$30
	.byte	$00
	.byte	$86
	.byte	$01
	.byte	$28
	.byte	$00
	.byte	$6D
	.byte	$01
	.byte	$20
	.byte	$00
	.byte	$70
	.byte	$01
	.byte	$18
	.byte	$08
	.byte	$78
	.byte	$01
	.byte	$10
	.byte	$08
	.byte	$79
	.byte	$01
	.byte	$20
	.byte	$18
	.byte	$85
	.byte	$01
	.byte	$20
	.byte	$20
	.byte	$81
	.byte	$01
	.byte	$30
	.byte	$08
	.byte	$89
	.byte	$01
	.byte	$30
	.byte	$10
	.byte	$03
	.byte	$C1
	.byte	$28
	.byte	$10
	.byte	$8D
	.byte	$01
	.byte	$28
	.byte	$18
	.byte	$A4
	.byte	$01
	.byte	$28
	.byte	$20
	.byte	$A3
	.byte	$01
	.byte	$30
	.byte	$18
	.byte	$C3
	.byte	$01
	.byte	$38
	.byte	$18
	.byte	$C0
	.byte	$01
	.byte	$38
	.byte	$10
	.byte	$BC
	.byte	$01
	.byte	$30
	.byte	$20
	.byte	$C4
	.byte	$01
	.byte	$28
	.byte	$28
	.byte	$CC
	.byte	$01
	.byte	$80
_palette_sprites:
	.byte	$1B
	.byte	$26
	.byte	$07
	.byte	$21
	.byte	$1B
	.byte	$0C
	.byte	$21
	.byte	$32
	.byte	$1B
	.byte	$36
	.byte	$06
	.byte	$15
	.byte	$1B
	.byte	$27
	.byte	$16
	.byte	$29
_palette_bg:
	.byte	$0F
	.byte	$2D
	.byte	$1A
	.byte	$10
	.byte	$0F
	.byte	$11
	.byte	$1A
	.byte	$21
	.byte	$0F
	.byte	$2A
	.byte	$1A
	.byte	$0A
	.byte	$0F
	.byte	$17
	.byte	$1A
	.byte	$07
L21B0:
	.byte	$20,$20,$53,$54,$45,$50,$53,$3A,$20,$00
L21EF:
	.byte	$20,$20,$54,$49,$4D,$45,$3A,$00

.segment	"BSS"

.segment	"ZEROPAGE"
_powerpad_cur:
	.res	2,$00
_powerpad_old:
	.res	2,$00
_powerpad_new:
	.res	2,$00
_debug_controller:
	.res	1,$00
_debug_controller_new:
	.res	1,$00
_temp_int:
	.res	2,$00
_last_step:
	.res	1,$00
_steps:
	.res	2,$00
_ones_step:
	.res	1,$00
_tens_step:
	.res	1,$00
_hundreds_step:
	.res	1,$00
_thousands_step:
	.res	1,$00
_ten_thousands_step:
	.res	1,$00
_steps_per_minute:
	.res	2,$00
_hundreds_spm:
	.res	1,$00
_tens_spm:
	.res	1,$00
_ones_spm:
	.res	1,$00
_seconds:
	.res	2,$00
_ones_seconds:
	.res	1,$00
_tens_seconds:
	.res	1,$00
_ones_minutes:
	.res	1,$00
_tens_minutes:
	.res	1,$00
_ones_hours:
	.res	1,$00
_tens_hours:
	.res	1,$00
_frame_counter:
	.res	1,$00
_step_button_lockout:
	.res	1,$00
_motion_counter:
	.res	1,$00
_time_since_button_press:
	.res	1,$00
_motion:
	.res	1,$00
_was_running:
	.res	1,$00
_was_walking:
	.res	1,$00
_index:
	.res	1,$00
_mph:
	.res	1,$00
_sprite_timer:
	.res	1,$00
_sprite_frame_counter:
	.res	1,$00
_title_animation_frame:
	.res	1,$00
_title_frame_counter:
	.res	1,$00
_scroll_x:
	.res	2,$00
_largeindex:
	.res	2,$00
_pointer:
	.res	2,$00
_scroll_timer:
	.res	1,$00
_game_mode:
	.res	1,$00
_selected_option:
	.res	1,$00
_race_type:
	.res	1,$00

; ---------------------------------------------------------------
; void __near__ add_step (void)
; ---------------------------------------------------------------

.segment	"CODE"

.proc	_add_step: near

.segment	"CODE"

;
; if(step_button_lockout > 0){
;
	lda     _step_button_lockout
;
; return; //still in lockout period
;
	bne     L20A4
;
; update_steps_per_minute(); // calculate SPM before resetting the timer
;
	jsr     _update_steps_per_minute
;
; sprite_timer = 0; //used for animation
;
	lda     #$00
	sta     _sprite_timer
;
; time_since_button_press = 0;
;
	sta     _time_since_button_press
;
; steps++;
;
	lda     _steps
	ldx     _steps+1
	clc
	adc     #$01
	bcc     L2085
	inx
L2085:	sta     _steps
	stx     _steps+1
;
; step_button_lockout = FRAMES_PER_STEP; //lock out for a few frames to avoid double counting
;
	lda     #$0A
	sta     _step_button_lockout
;
; if(ones_step == 9){
;
	lda     _ones_step
	cmp     #$09
	bne     L2401
;
; ones_step = 0;
;
	lda     #$00
	sta     _ones_step
;
; if(tens_step == 9){
;
	lda     _tens_step
	cmp     #$09
	bne     L2400
;
; tens_step = 0;
;
	lda     #$00
	sta     _tens_step
;
; if(hundreds_step == 9){
;
	lda     _hundreds_step
	cmp     #$09
	bne     L23FF
;
; hundreds_step = 0;
;
	lda     #$00
	sta     _hundreds_step
;
; if(thousands_step == 9){
;
	lda     _thousands_step
	cmp     #$09
	bne     L23FE
;
; thousands_step = 0;
;
	lda     #$00
	sta     _thousands_step
;
; if(ten_thousands_step == 9){
;
	lda     _ten_thousands_step
	cmp     #$09
	bne     L23FD
;
; ten_thousands_step = 0;
;
	lda     #$00
	sta     _ten_thousands_step
;
; } else {
;
	rts
;
; ten_thousands_step++;
;
L23FD:	inc     _ten_thousands_step
;
; } else {
;
	rts
;
; thousands_step++;
;
L23FE:	inc     _thousands_step
;
; } else {
;
	rts
;
; hundreds_step++;
;
L23FF:	inc     _hundreds_step
;
; } else {
;
	rts
;
; tens_step++;
;
L2400:	inc     _tens_step
;
; } else {
;
	rts
;
; ones_step++;
;
L2401:	inc     _ones_step
;
; }
;
L20A4:	rts

.endproc

; ---------------------------------------------------------------
; void __near__ add_second (void)
; ---------------------------------------------------------------

.segment	"CODE"

.proc	_add_second: near

.segment	"CODE"

;
; seconds++;
;
	lda     _seconds
	ldx     _seconds+1
	clc
	adc     #$01
	bcc     L2057
	inx
L2057:	sta     _seconds
	stx     _seconds+1
;
; if(ones_seconds == 9){
;
	lda     _ones_seconds
	cmp     #$09
	bne     L2407
;
; ones_seconds = 0;
;
	lda     #$00
	sta     _ones_seconds
;
; if(tens_seconds == 5){
;
	lda     _tens_seconds
	cmp     #$05
	bne     L2406
;
; tens_seconds = 0;
;
	lda     #$00
	sta     _tens_seconds
;
; if(ones_minutes == 9){
;
	lda     _ones_minutes
	cmp     #$09
	bne     L2405
;
; ones_minutes = 0;
;
	lda     #$00
	sta     _ones_minutes
;
; if(tens_minutes == 5){
;
	lda     _tens_minutes
	cmp     #$05
	bne     L2404
;
; tens_minutes = 0;
;
	lda     #$00
	sta     _tens_minutes
;
; if(ones_hours == 9){
;
	lda     _ones_hours
	cmp     #$09
	bne     L2403
;
; ones_hours = 0;
;
	lda     #$00
	sta     _ones_hours
;
; if(tens_hours == 2){
;
	lda     _tens_hours
	cmp     #$02
	bne     L2402
;
; tens_hours = 0;
;
	lda     #$00
	sta     _tens_hours
;
; } else {
;
	rts
;
; tens_hours++;
;
L2402:	inc     _tens_hours
;
; } else {
;
	rts
;
; ones_hours++;
;
L2403:	inc     _ones_hours
;
; } else {
;
	rts
;
; tens_minutes++;
;
L2404:	inc     _tens_minutes
;
; } else {
;
	rts
;
; ones_minutes++;
;
L2405:	inc     _ones_minutes
;
; } else {
;
	rts
;
; tens_seconds++;
;
L2406:	inc     _tens_seconds
;
; } else {
;
	rts
;
; ones_seconds++;
;
L2407:	inc     _ones_seconds
;
; }
;
	rts

.endproc

; ---------------------------------------------------------------
; void __near__ initial_steps_conversion (void)
; ---------------------------------------------------------------

.segment	"CODE"

.proc	_initial_steps_conversion: near

.segment	"CODE"

;
; temp_int = steps;
;
	lda     _steps
	ldx     _steps+1
	sta     _temp_int
	stx     _temp_int+1
;
; ones_step = temp_int % 10;
;
	jsr     pushax
	lda     #$0A
	jsr     tosumoda0
	sta     _ones_step
;
; temp_int = temp_int / 10;
;
	lda     _temp_int
	ldx     _temp_int+1
	jsr     pushax
	lda     #$0A
	jsr     tosudiva0
	sta     _temp_int
	stx     _temp_int+1
;
; tens_step = temp_int % 10;
;
	jsr     pushax
	lda     #$0A
	jsr     tosumoda0
	sta     _tens_step
;
; temp_int = temp_int / 10;
;
	lda     _temp_int
	ldx     _temp_int+1
	jsr     pushax
	lda     #$0A
	jsr     tosudiva0
	sta     _temp_int
	stx     _temp_int+1
;
; hundreds_step = temp_int % 10;
;
	jsr     pushax
	lda     #$0A
	jsr     tosumoda0
	sta     _hundreds_step
;
; temp_int = temp_int / 10;
;
	lda     _temp_int
	ldx     _temp_int+1
	jsr     pushax
	lda     #$0A
	jsr     tosudiva0
	sta     _temp_int
	stx     _temp_int+1
;
; thousands_step = temp_int % 10;
;
	jsr     pushax
	lda     #$0A
	jsr     tosumoda0
	sta     _thousands_step
;
; temp_int = temp_int / 10;
;
	lda     _temp_int
	ldx     _temp_int+1
	jsr     pushax
	lda     #$0A
	jsr     tosudiva0
	sta     _temp_int
	stx     _temp_int+1
;
; ten_thousands_step = temp_int % 10;
;
	jsr     pushax
	lda     #$0A
	jsr     tosumoda0
	sta     _ten_thousands_step
;
; one_vram_buffer(0x30+ten_thousands_step, NTADR_A(10, 4));
;
	clc
	adc     #$30
	jsr     pusha
	ldx     #$20
	lda     #$8A
	jsr     _one_vram_buffer
;
; one_vram_buffer(0x30+thousands_step, NTADR_A(11, 4));
;
	lda     _thousands_step
	clc
	adc     #$30
	jsr     pusha
	ldx     #$20
	lda     #$8B
	jsr     _one_vram_buffer
;
; one_vram_buffer(0x30+hundreds_step, NTADR_A(13, 4));
;
	lda     _hundreds_step
	clc
	adc     #$30
	jsr     pusha
	ldx     #$20
	lda     #$8D
	jsr     _one_vram_buffer
;
; one_vram_buffer(0x30+tens_step, NTADR_A(14, 4));
;
	lda     _tens_step
	clc
	adc     #$30
	jsr     pusha
	ldx     #$20
	lda     #$8E
	jsr     _one_vram_buffer
;
; one_vram_buffer(0x30+ones_step, NTADR_A(15, 4));
;
	lda     _ones_step
	clc
	adc     #$30
	jsr     pusha
	ldx     #$20
	lda     #$8F
	jmp     _one_vram_buffer

.endproc

; ---------------------------------------------------------------
; void __near__ initial_timer_conversion (void)
; ---------------------------------------------------------------

.segment	"CODE"

.proc	_initial_timer_conversion: near

.segment	"CODE"

;
; temp_int = seconds;
;
	lda     _seconds
	ldx     _seconds+1
	sta     _temp_int
	stx     _temp_int+1
;
; ones_seconds = temp_int % 10;
;
	jsr     pushax
	lda     #$0A
	jsr     tosumoda0
	sta     _ones_seconds
;
; temp_int = temp_int / 10;
;
	lda     _temp_int
	ldx     _temp_int+1
	jsr     pushax
	lda     #$0A
	jsr     tosudiva0
	sta     _temp_int
	stx     _temp_int+1
;
; tens_seconds = temp_int % 6;
;
	jsr     pushax
	lda     #$06
	jsr     tosumoda0
	sta     _tens_seconds
;
; temp_int = temp_int / 6;
;
	lda     _temp_int
	ldx     _temp_int+1
	jsr     pushax
	lda     #$06
	jsr     tosudiva0
	sta     _temp_int
	stx     _temp_int+1
;
; ones_minutes = temp_int % 10;
;
	jsr     pushax
	lda     #$0A
	jsr     tosumoda0
	sta     _ones_minutes
;
; temp_int = temp_int / 10;
;
	lda     _temp_int
	ldx     _temp_int+1
	jsr     pushax
	lda     #$0A
	jsr     tosudiva0
	sta     _temp_int
	stx     _temp_int+1
;
; tens_minutes = temp_int % 6;
;
	jsr     pushax
	lda     #$06
	jsr     tosumoda0
	sta     _tens_minutes
;
; temp_int = temp_int / 6;
;
	lda     _temp_int
	ldx     _temp_int+1
	jsr     pushax
	lda     #$06
	jsr     tosudiva0
	sta     _temp_int
	stx     _temp_int+1
;
; ones_hours = temp_int % 10;
;
	jsr     pushax
	lda     #$0A
	jsr     tosumoda0
	sta     _ones_hours
;
; temp_int = temp_int / 10;
;
	lda     _temp_int
	ldx     _temp_int+1
	jsr     pushax
	lda     #$0A
	jsr     tosudiva0
	sta     _temp_int
	stx     _temp_int+1
;
; tens_hours = temp_int % 3;
;
	jsr     pushax
	lda     #$03
	jsr     tosumoda0
	sta     _tens_hours
;
; one_vram_buffer(0x30+tens_hours, NTADR_A(8, 2));
;
	clc
	adc     #$30
	jsr     pusha
	ldx     #$20
	lda     #$48
	jsr     _one_vram_buffer
;
; one_vram_buffer(0x30+ones_hours, NTADR_A(9, 2));
;
	lda     _ones_hours
	clc
	adc     #$30
	jsr     pusha
	ldx     #$20
	lda     #$49
	jsr     _one_vram_buffer
;
; one_vram_buffer(0x30+tens_minutes, NTADR_A(11, 2));
;
	lda     _tens_minutes
	clc
	adc     #$30
	jsr     pusha
	ldx     #$20
	lda     #$4B
	jsr     _one_vram_buffer
;
; one_vram_buffer(0x30+ones_minutes, NTADR_A(12, 2));
;
	lda     _ones_minutes
	clc
	adc     #$30
	jsr     pusha
	ldx     #$20
	lda     #$4C
	jsr     _one_vram_buffer
;
; one_vram_buffer(0x30+tens_seconds, NTADR_A(14, 2));
;
	lda     _tens_seconds
	clc
	adc     #$30
	jsr     pusha
	ldx     #$20
	lda     #$4E
	jsr     _one_vram_buffer
;
; one_vram_buffer(0x30+ones_seconds, NTADR_A(15, 2));
;
	lda     _ones_seconds
	clc
	adc     #$30
	jsr     pusha
	ldx     #$20
	lda     #$4F
	jmp     _one_vram_buffer

.endproc

; ---------------------------------------------------------------
; void __near__ check_motion (void)
; ---------------------------------------------------------------

.segment	"CODE"

.proc	_check_motion: near

.segment	"CODE"

;
; if(time_since_button_press < 36) {
;
	lda     _time_since_button_press
	cmp     #$24
	bcs     L2409
;
; motion = RUNNING;
;
	lda     #$00
;
; } else if(time_since_button_press <= 120) {
;
	jmp     L2408
L2409:	lda     _time_since_button_press
	cmp     #$79
	bcs     L240A
;
; motion = WALKING;
;
	lda     #$01
;
; } else {
;
	jmp     L2408
;
; motion = STANDING;
;
L240A:	lda     #$02
L2408:	sta     _motion
;
; }
;
	rts

.endproc

; ---------------------------------------------------------------
; void __near__ load_room (void)
; ---------------------------------------------------------------

.segment	"CODE"

.proc	_load_room: near

.segment	"CODE"

;
; ppu_off();
;
	jsr     _ppu_off
;
; clear_background();
;
	jsr     _clear_background
;
; vram_adr(NAMETABLE_A);
;
	ldx     #$20
	lda     #$00
	jsr     _vram_adr
;
; for (largeindex = 0; largeindex < 1024; ++largeindex)
;
	lda     #$00
	sta     _largeindex
	sta     _largeindex+1
L23D9:	ldx     _largeindex+1
	cpx     #$04
	bcs     L23DA
;
; vram_put(trackflowers[largeindex]);
;
	lda     #<(_trackflowers)
	sta     ptr1
	lda     #>(_trackflowers)
	clc
	adc     _largeindex+1
	sta     ptr1+1
	ldy     _largeindex
	lda     (ptr1),y
	jsr     _vram_put
;
; ++index;
;
	inc     _index
;
; if (index > 1)
;
	lda     _index
	cmp     #$02
	bcc     L23DB
;
; flush_vram_update2();
;
	jsr     _flush_vram_update2
;
; index = 0;
;
	lda     #$00
	sta     _index
;
; for (largeindex = 0; largeindex < 1024; ++largeindex)
;
L23DB:	inc     _largeindex
	bne     L23D9
	inc     _largeindex+1
	jmp     L23D9
;
; vram_adr(NTADR_A(01,11));
;
L23DA:	ldx     #$21
	lda     #$61
	jsr     _vram_adr
;
; vram_put(0x01);
;
	lda     #$01
	jsr     _vram_put
;
; ppu_on_all();
;
	jmp     _ppu_on_all

.endproc

; ---------------------------------------------------------------
; void __near__ draw_sprite (void)
; ---------------------------------------------------------------

.segment	"CODE"

.proc	_draw_sprite: near

.segment	"CODE"

;
; oam_clear();
;
	jsr     _oam_clear
;
; set_sprite_zero();
;
	jsr     _set_sprite_zero
;
; oam_set(4); // start drawing from slot 4
;
	lda     #$04
	jsr     _oam_set
;
; ++sprite_frame_counter;
;
	inc     _sprite_frame_counter
;
; if(sprite_frame_counter >= 60){
;
	lda     _sprite_frame_counter
	cmp     #$3C
	bcc     L240B
;
; sprite_frame_counter = 0;
;
	lda     #$00
	sta     _sprite_frame_counter
;
; if(motion == RUNNING){
;
L240B:	lda     _motion
	jne     L2410
;
; if(sprite_frame_counter < 10){
;
	lda     _sprite_frame_counter
	cmp     #$0A
	bcs     L240C
;
; oam_meta_spr(120, 120, marathon_man_run1_data);
;
	jsr     decsp2
	lda     #$78
	ldy     #$01
	sta     (sp),y
	dey
	sta     (sp),y
	lda     #<(_marathon_man_run1_data)
	ldx     #>(_marathon_man_run1_data)
	jmp     _oam_meta_spr
;
; } else if(sprite_frame_counter < 20){
;
L240C:	lda     _sprite_frame_counter
	cmp     #$14
	bcs     L240D
;
; oam_meta_spr(120, 120, marathon_man_run2_data);
;
	jsr     decsp2
	lda     #$78
	ldy     #$01
	sta     (sp),y
	dey
	sta     (sp),y
	lda     #<(_marathon_man_run2_data)
	ldx     #>(_marathon_man_run2_data)
	jmp     _oam_meta_spr
;
; } else if(sprite_frame_counter < 30){
;
L240D:	lda     _sprite_frame_counter
	cmp     #$1E
	bcs     L240E
;
; oam_meta_spr(120, 120, marathon_man_run3_data);
;
	jsr     decsp2
	lda     #$78
	ldy     #$01
	sta     (sp),y
	dey
	sta     (sp),y
	lda     #<(_marathon_man_run3_data)
	ldx     #>(_marathon_man_run3_data)
	jmp     _oam_meta_spr
;
; } else if(sprite_frame_counter < 40){
;
L240E:	lda     _sprite_frame_counter
	cmp     #$28
	bcs     L240F
;
; oam_meta_spr(120, 120, marathon_man_run4_data);
;
	jsr     decsp2
	lda     #$78
	ldy     #$01
	sta     (sp),y
	dey
	sta     (sp),y
	lda     #<(_marathon_man_run4_data)
	ldx     #>(_marathon_man_run4_data)
	jmp     _oam_meta_spr
;
; } else if(sprite_frame_counter < 50){
;
L240F:	lda     _sprite_frame_counter
	cmp     #$32
	bcs     L2182
;
; oam_meta_spr(120, 120, marathon_man_run5_data);
;
	jsr     decsp2
	lda     #$78
	ldy     #$01
	sta     (sp),y
	dey
	sta     (sp),y
	lda     #<(_marathon_man_run5_data)
	ldx     #>(_marathon_man_run5_data)
	jmp     _oam_meta_spr
;
; oam_meta_spr(120, 120, marathon_man_run6_data);
;
L2182:	jsr     decsp2
	lda     #$78
	ldy     #$01
	sta     (sp),y
	dey
	sta     (sp),y
	lda     #<(_marathon_man_run6_data)
	ldx     #>(_marathon_man_run6_data)
	jmp     _oam_meta_spr
;
; } else if(motion == WALKING){
;
L2410:	lda     _motion
	cmp     #$01
	bne     L218E
;
; if(sprite_frame_counter < 15){
;
	lda     _sprite_frame_counter
	cmp     #$0F
	bcs     L2411
;
; oam_meta_spr(120, 120, marathon_man_walk1_data);
;
	jsr     decsp2
	lda     #$78
	ldy     #$01
	sta     (sp),y
	dey
	sta     (sp),y
	lda     #<(_marathon_man_walk1_data)
	ldx     #>(_marathon_man_walk1_data)
	jmp     _oam_meta_spr
;
; } else if(sprite_frame_counter < 30){
;
L2411:	lda     _sprite_frame_counter
	cmp     #$1E
	bcs     L2412
;
; oam_meta_spr(120, 120, marathon_man_walk2_data);
;
	jsr     decsp2
	lda     #$78
	ldy     #$01
	sta     (sp),y
	dey
	sta     (sp),y
	lda     #<(_marathon_man_walk2_data)
	ldx     #>(_marathon_man_walk2_data)
	jmp     _oam_meta_spr
;
; } else if(sprite_frame_counter < 45){
;
L2412:	lda     _sprite_frame_counter
	cmp     #$2D
	bcs     L219E
;
; oam_meta_spr(120, 120, marathon_man_walk3_data);
;
	jsr     decsp2
	lda     #$78
	ldy     #$01
	sta     (sp),y
	dey
	sta     (sp),y
	lda     #<(_marathon_man_walk3_data)
	ldx     #>(_marathon_man_walk3_data)
	jmp     _oam_meta_spr
;
; oam_meta_spr(120, 120, marathon_man_walk4_data);
;
L219E:	jsr     decsp2
	lda     #$78
	ldy     #$01
	sta     (sp),y
	dey
	sta     (sp),y
	lda     #<(_marathon_man_walk4_data)
	ldx     #>(_marathon_man_walk4_data)
	jmp     _oam_meta_spr
;
; oam_meta_spr(120, 120, marathon_man_walk1_data);
;
L218E:	jsr     decsp2
	lda     #$78
	ldy     #$01
	sta     (sp),y
	dey
	sta     (sp),y
	lda     #<(_marathon_man_walk1_data)
	ldx     #>(_marathon_man_walk1_data)
	jmp     _oam_meta_spr

.endproc

; ---------------------------------------------------------------
; void __near__ draw_hud (void)
; ---------------------------------------------------------------

.segment	"CODE"

.proc	_draw_hud: near

.segment	"CODE"

;
; multi_vram_buffer_horz("  STEPS: ", 9, NTADR_A(1, 4));
;
	jsr     decsp3
	lda     #<(L21B0)
	ldy     #$01
	sta     (sp),y
	iny
	lda     #>(L21B0)
	sta     (sp),y
	lda     #$09
	ldy     #$00
	sta     (sp),y
	ldx     #$20
	lda     #$81
	jsr     _multi_vram_buffer_horz
;
; one_vram_buffer(0x30+ten_thousands_step, NTADR_A(10, 4));
;
	lda     _ten_thousands_step
	clc
	adc     #$30
	jsr     pusha
	ldx     #$20
	lda     #$8A
	jsr     _one_vram_buffer
;
; one_vram_buffer(0x30+thousands_step, NTADR_A(11, 4));
;
	lda     _thousands_step
	clc
	adc     #$30
	jsr     pusha
	ldx     #$20
	lda     #$8B
	jsr     _one_vram_buffer
;
; one_vram_buffer(',', NTADR_A(12, 4));
;
	lda     #$2C
	jsr     pusha
	ldx     #$20
	lda     #$8C
	jsr     _one_vram_buffer
;
; one_vram_buffer(0x30+hundreds_step, NTADR_A(13, 4));
;
	lda     _hundreds_step
	clc
	adc     #$30
	jsr     pusha
	ldx     #$20
	lda     #$8D
	jsr     _one_vram_buffer
;
; one_vram_buffer(0x30+tens_step, NTADR_A(14, 4));
;
	lda     _tens_step
	clc
	adc     #$30
	jsr     pusha
	ldx     #$20
	lda     #$8E
	jsr     _one_vram_buffer
;
; one_vram_buffer(0x30+ones_step, NTADR_A(15, 4));
;
	lda     _ones_step
	clc
	adc     #$30
	jsr     pusha
	ldx     #$20
	lda     #$8F
	jsr     _one_vram_buffer
;
; multi_vram_buffer_horz("  TIME:", 7, NTADR_A(1, 2));
;
	jsr     decsp3
	lda     #<(L21EF)
	ldy     #$01
	sta     (sp),y
	iny
	lda     #>(L21EF)
	sta     (sp),y
	lda     #$07
	ldy     #$00
	sta     (sp),y
	ldx     #$20
	lda     #$41
	jsr     _multi_vram_buffer_horz
;
; one_vram_buffer(0x30+tens_hours, NTADR_A(8, 2));
;
	lda     _tens_hours
	clc
	adc     #$30
	jsr     pusha
	ldx     #$20
	lda     #$48
	jsr     _one_vram_buffer
;
; one_vram_buffer(0x30+ones_hours, NTADR_A(9, 2));
;
	lda     _ones_hours
	clc
	adc     #$30
	jsr     pusha
	ldx     #$20
	lda     #$49
	jsr     _one_vram_buffer
;
; one_vram_buffer(':', NTADR_A(10, 2));
;
	lda     #$3A
	jsr     pusha
	ldx     #$20
	lda     #$4A
	jsr     _one_vram_buffer
;
; one_vram_buffer(0x30+tens_minutes, NTADR_A(11, 2));
;
	lda     _tens_minutes
	clc
	adc     #$30
	jsr     pusha
	ldx     #$20
	lda     #$4B
	jsr     _one_vram_buffer
;
; one_vram_buffer(0x30+ones_minutes, NTADR_A(12, 2));
;
	lda     _ones_minutes
	clc
	adc     #$30
	jsr     pusha
	ldx     #$20
	lda     #$4C
	jsr     _one_vram_buffer
;
; one_vram_buffer(':', NTADR_A(13, 2));
;
	lda     #$3A
	jsr     pusha
	ldx     #$20
	lda     #$4D
	jsr     _one_vram_buffer
;
; one_vram_buffer(0x30+tens_seconds, NTADR_A(14, 2));
;
	lda     _tens_seconds
	clc
	adc     #$30
	jsr     pusha
	ldx     #$20
	lda     #$4E
	jsr     _one_vram_buffer
;
; one_vram_buffer(0x30+ones_seconds, NTADR_A(15, 2));
;
	lda     _ones_seconds
	clc
	adc     #$30
	jsr     pusha
	ldx     #$20
	lda     #$4F
	jmp     _one_vram_buffer

.endproc

; ---------------------------------------------------------------
; void __near__ process_controller (void)
; ---------------------------------------------------------------

.segment	"CODE"

.proc	_process_controller: near

.segment	"CODE"

;
; if(debug_controller_new & PAD_A || debug_controller_new & PAD_B){
;
	lda     _debug_controller_new
	and     #$80
	bne     L2413
	lda     _debug_controller_new
	and     #$40
	beq     L202D
;
; add_step();
;
L2413:	jsr     _add_step
;
; if(powerpad_new & POWERPAD_1){
;
L202D:	lda     _powerpad_new+1
	and     #$10
	beq     L2031
;
; add_step();
;
	jsr     _add_step
;
; if(powerpad_new & POWERPAD_2){
;
L2031:	lda     _powerpad_new+1
	and     #$40
	beq     L2034
;
; add_step();
;
	jsr     _add_step
;
; if(powerpad_new & POWERPAD_3){
;
L2034:	lda     _powerpad_new+1
	and     #$20
	beq     L2037
;
; add_step();
;
	jsr     _add_step
;
; if(powerpad_new & POWERPAD_4){
;
L2037:	lda     _powerpad_new+1
	and     #$80
	beq     L203A
;
; add_step();
;
	jsr     _add_step
;
; if(powerpad_new & POWERPAD_5){
;
L203A:	lda     _powerpad_new+1
	and     #$04
	beq     L203D
;
; add_step();
;
	jsr     _add_step
;
; if(powerpad_new & POWERPAD_6){
;
L203D:	lda     _powerpad_new
	and     #$40
	beq     L2040
;
; add_step();
;
	jsr     _add_step
;
; if(powerpad_new & POWERPAD_7){
;
L2040:	lda     _powerpad_new
	and     #$01
	beq     L2043
;
; add_step();
;
	jsr     _add_step
;
; if(powerpad_new & POWERPAD_8){
;
L2043:	lda     _powerpad_new+1
	and     #$02
	beq     L2046
;
; add_step();
;
	jsr     _add_step
;
; if(powerpad_new & POWERPAD_9){
;
L2046:	lda     _powerpad_new+1
	and     #$01
	beq     L2049
;
; add_step();
;
	jsr     _add_step
;
; if(powerpad_new & POWERPAD_10){
;
L2049:	lda     _powerpad_new
	and     #$10
	beq     L204C
;
; add_step();
;
	jsr     _add_step
;
; if(powerpad_new & POWERPAD_11){
;
L204C:	lda     _powerpad_new
	and     #$04
	beq     L204F
;
; add_step();
;
	jsr     _add_step
;
; if(powerpad_new & POWERPAD_12){
;
L204F:	lda     _powerpad_new+1
	and     #$08
;
; add_step();
;
	jne     _add_step
;
; }
;
	rts

.endproc

; ---------------------------------------------------------------
; void __near__ set_sprite_zero (void)
; ---------------------------------------------------------------

.segment	"CODE"

.proc	_set_sprite_zero: near

.segment	"CODE"

;
; oam_set(0); // double check that this goes in the zero slot
;
	lda     #$00
	jsr     _oam_set
;
; oam_spr(0x01,88,0x02,3);
;
	jsr     decsp3
	lda     #$01
	ldy     #$02
	sta     (sp),y
	lda     #$58
	dey
	sta     (sp),y
	lda     #$02
	dey
	sta     (sp),y
	lda     #$03
	jmp     _oam_spr

.endproc

; ---------------------------------------------------------------
; void __near__ update_steps_per_minute (void)
; ---------------------------------------------------------------

.segment	"CODE"

.proc	_update_steps_per_minute: near

.segment	"CODE"

;
; if(time_since_button_press > 0 && time_since_button_press < 255) {
;
	ldx     #$00
	lda     _time_since_button_press
	beq     L2419
	cmp     #$FF
	bcc     L2417
	txa
	jmp     L2419
;
; steps_per_minute = 3600u / (unsigned int)time_since_button_press;
;
L2417:	ldx     #$0E
	lda     #$10
	jsr     pushax
	lda     _time_since_button_press
	jsr     tosudiva0
;
; steps_per_minute = 0;
;
L2419:	sta     _steps_per_minute
	stx     _steps_per_minute+1
;
; temp_int = steps_per_minute;
;
	lda     _steps_per_minute
	ldx     _steps_per_minute+1
	sta     _temp_int
	stx     _temp_int+1
;
; ones_spm = temp_int % 10;
;
	jsr     pushax
	lda     #$0A
	jsr     tosumoda0
	sta     _ones_spm
;
; temp_int /= 10;
;
	lda     _temp_int
	ldx     _temp_int+1
	jsr     pushax
	lda     #$0A
	jsr     tosudiva0
	sta     _temp_int
	stx     _temp_int+1
;
; tens_spm = temp_int % 10;
;
	jsr     pushax
	lda     #$0A
	jsr     tosumoda0
	sta     _tens_spm
;
; temp_int /= 10;
;
	lda     _temp_int
	ldx     _temp_int+1
	jsr     pushax
	lda     #$0A
	jsr     tosudiva0
	sta     _temp_int
	stx     _temp_int+1
;
; hundreds_spm = temp_int % 10;
;
	jsr     pushax
	lda     #$0A
	jsr     tosumoda0
	sta     _hundreds_spm
;
; }
;
	rts

.endproc

; ---------------------------------------------------------------
; void __near__ load_title (void)
; ---------------------------------------------------------------

.segment	"CODE"

.proc	_load_title: near

.segment	"CODE"

;
; ppu_off();
;
	jsr     _ppu_off
;
; pal_bg(palette_bg);
;
	lda     #<(_palette_bg)
	ldx     #>(_palette_bg)
	jsr     _pal_bg
;
; pal_spr(palette_sprites);
;
	lda     #<(_palette_sprites)
	ldx     #>(_palette_sprites)
	jsr     _pal_spr
;
; oam_clear();
;
	jsr     _oam_clear
;
; vram_adr(NAMETABLE_A);
;
	ldx     #$20
	lda     #$00
	jsr     _vram_adr
;
; for (largeindex = 0; largeindex < 1024; ++largeindex)
;
	lda     #$00
	sta     _largeindex
	sta     _largeindex+1
L23AD:	ldx     _largeindex+1
	cpx     #$04
	bcs     L23AE
;
; vram_put(title[largeindex]);
;
	lda     #<(_title)
	sta     ptr1
	lda     #>(_title)
	clc
	adc     _largeindex+1
	sta     ptr1+1
	ldy     _largeindex
	lda     (ptr1),y
	jsr     _vram_put
;
; flush_vram_update2();
;
	jsr     _flush_vram_update2
;
; for (largeindex = 0; largeindex < 1024; ++largeindex)
;
	inc     _largeindex
	bne     L23AD
	inc     _largeindex+1
	jmp     L23AD
;
; title_animation_frame = 0;
;
L23AE:	lda     #$00
	sta     _title_animation_frame
;
; title_frame_counter = 0;
;
	sta     _title_frame_counter
;
; game_mode = MODE_TITLE;
;
	sta     _game_mode
;
; set_scroll_x(0);
;
	tax
	jsr     _set_scroll_x
;
; set_scroll_y(0);
;
	ldx     #$00
	txa
	jsr     _set_scroll_y
;
; ppu_on_all();
;
	jmp     _ppu_on_all

.endproc

; ---------------------------------------------------------------
; void __near__ init_mode_game (void)
; ---------------------------------------------------------------

.segment	"CODE"

.proc	_init_mode_game: near

.segment	"CODE"

;
; ppu_off();
;
	jsr     _ppu_off
;
; pal_bg(palette_bg);
;
	lda     #<(_palette_bg)
	ldx     #>(_palette_bg)
	jsr     _pal_bg
;
; pal_spr(palette_sprites);
;
	lda     #<(_palette_sprites)
	ldx     #>(_palette_sprites)
	jsr     _pal_spr
;
; clear_vram_buffer();
;
	jsr     _clear_vram_buffer
;
; steps = 0;
;
	lda     #$00
	sta     _steps
	sta     _steps+1
;
; seconds = 0;
;
	sta     _seconds
	sta     _seconds+1
;
; scroll_x = 0;
;
	sta     _scroll_x
	sta     _scroll_x+1
;
; frame_counter = 0;
;
	sta     _frame_counter
;
; scroll_timer = 0;
;
	sta     _scroll_timer
;
; step_button_lockout = 0;
;
	sta     _step_button_lockout
;
; sprite_frame_counter = 0;
;
	sta     _sprite_frame_counter
;
; time_since_button_press = 255;
;
	lda     #$FF
	sta     _time_since_button_press
;
; motion = STANDING;
;
	lda     #$02
	sta     _motion
;
; powerpad_old = 0;
;
	lda     #$00
	sta     _powerpad_old
	sta     _powerpad_old+1
;
; powerpad_new = 0;
;
	sta     _powerpad_new
	sta     _powerpad_new+1
;
; initial_steps_conversion();
;
	jsr     _initial_steps_conversion
;
; initial_timer_conversion();
;
	jsr     _initial_timer_conversion
;
; load_room();
;
	jsr     _load_room
;
; ppu_off();
;
	jsr     _ppu_off
;
; set_sprite_zero();
;
	jsr     _set_sprite_zero
;
; set_scroll_y(0xff);
;
	ldx     #$00
	lda     #$FF
	jsr     _set_scroll_y
;
; game_mode = MODE_GAME;
;
	lda     #$02
	sta     _game_mode
;
; ppu_on_all();
;
	jmp     _ppu_on_all

.endproc

; ---------------------------------------------------------------
; void __near__ init_options (void)
; ---------------------------------------------------------------

.segment	"CODE"

.proc	_init_options: near

.segment	"CODE"

;
; ppu_off();
;
	jsr     _ppu_off
;
; pal_bg(palette_bg);
;
	lda     #<(_palette_bg)
	ldx     #>(_palette_bg)
	jsr     _pal_bg
;
; pal_spr(palette_sprites);
;
	lda     #<(_palette_sprites)
	ldx     #>(_palette_sprites)
	jsr     _pal_spr
;
; oam_clear();
;
	jsr     _oam_clear
;
; clear_vram_buffer();
;
	jsr     _clear_vram_buffer
;
; selected_option = 0;
;
	lda     #$00
	sta     _selected_option
;
; vram_adr(NAMETABLE_A);
;
	ldx     #$20
	jsr     _vram_adr
;
; for(largeindex = 0; largeindex < 1024; ++largeindex){
;
	lda     #$00
	sta     _largeindex
	sta     _largeindex+1
L2272:	ldx     _largeindex+1
	cpx     #$04
	bcs     L2273
;
; vram_put(0x00);
;
	lda     #$00
	jsr     _vram_put
;
; flush_vram_update2();
;
	jsr     _flush_vram_update2
;
; for(largeindex = 0; largeindex < 1024; ++largeindex){
;
	inc     _largeindex
	bne     L2272
	inc     _largeindex+1
	jmp     L2272
;
; vram_adr(NTADR_A(10, 10));
;
L2273:	ldx     #$21
	lda     #$4A
	jsr     _vram_adr
;
; vram_put('5'); vram_put('K');
;
	lda     #$35
	jsr     _vram_put
	lda     #$4B
	jsr     _vram_put
;
; vram_adr(NTADR_A(10, 14));
;
	ldx     #$21
	lda     #$CA
	jsr     _vram_adr
;
; vram_put('1'); vram_put('0'); vram_put('K');
;
	lda     #$31
	jsr     _vram_put
	lda     #$30
	jsr     _vram_put
	lda     #$4B
	jsr     _vram_put
;
; vram_adr(NTADR_A(10, 18));
;
	ldx     #$22
	lda     #$4A
	jsr     _vram_adr
;
; vram_put('M'); vram_put('A'); vram_put('R'); vram_put('A');
;
	lda     #$4D
	jsr     _vram_put
	lda     #$41
	jsr     _vram_put
	lda     #$52
	jsr     _vram_put
	lda     #$41
	jsr     _vram_put
;
; vram_put('T'); vram_put('H'); vram_put('O'); vram_put('N');
;
	lda     #$54
	jsr     _vram_put
	lda     #$48
	jsr     _vram_put
	lda     #$4F
	jsr     _vram_put
	lda     #$4E
	jsr     _vram_put
;
; vram_adr(NTADR_A(9, 10));
;
	ldx     #$21
	lda     #$49
	jsr     _vram_adr
;
; vram_put('>');
;
	lda     #$3E
	jsr     _vram_put
;
; game_mode = MODE_OPTIONS;
;
	lda     #$01
	sta     _game_mode
;
; set_scroll_x(0);
;
	ldx     #$00
	txa
	jsr     _set_scroll_x
;
; set_scroll_y(0);
;
	ldx     #$00
	txa
	jsr     _set_scroll_y
;
; ppu_on_all();
;
	jmp     _ppu_on_all

.endproc

; ---------------------------------------------------------------
; void __near__ draw_options_screen (void)
; ---------------------------------------------------------------

.segment	"CODE"

.proc	_draw_options_screen: near

.segment	"CODE"

;
; one_vram_buffer((selected_option == 0) ? '>' : ' ', NTADR_A(9, 10));
;
	lda     _selected_option
	bne     L241A
	lda     #$3E
	jmp     L241B
L241A:	lda     #$20
L241B:	jsr     pusha
	ldx     #$21
	lda     #$49
	jsr     _one_vram_buffer
;
; one_vram_buffer((selected_option == 1) ? '>' : ' ', NTADR_A(9, 14));
;
	lda     _selected_option
	cmp     #$01
	bne     L241C
	lda     #$3E
	jmp     L241D
L241C:	lda     #$20
L241D:	jsr     pusha
	ldx     #$21
	lda     #$C9
	jsr     _one_vram_buffer
;
; one_vram_buffer((selected_option == 2) ? '>' : ' ', NTADR_A(9, 18));
;
	lda     _selected_option
	cmp     #$02
	bne     L241E
	lda     #$3E
	jmp     L241F
L241E:	lda     #$20
L241F:	jsr     pusha
	ldx     #$22
	lda     #$49
	jmp     _one_vram_buffer

.endproc

; ---------------------------------------------------------------
; void __near__ set_signature_sprite (void)
; ---------------------------------------------------------------

.segment	"CODE"

.proc	_set_signature_sprite: near

.segment	"CODE"

;
; switch(title_animation_frame){  
;
	lda     _title_animation_frame
;
; }
;
	jeq     L22C2
	cmp     #$01
	jeq     L22C6
	cmp     #$02
	jeq     L22CA
	cmp     #$03
	jeq     L22CE
	cmp     #$04
	jeq     L22D2
	cmp     #$05
	jeq     L22D6
	cmp     #$06
	jeq     L22DA
	cmp     #$07
	jeq     L22DE
	cmp     #$08
	jeq     L22E2
	cmp     #$09
	jeq     L22E6
	cmp     #$0A
	jeq     L22EA
	cmp     #$0B
	jeq     L22EE
	cmp     #$0C
	jeq     L22F2
	cmp     #$0D
	jeq     L22F6
	cmp     #$0E
	jeq     L22FA
	cmp     #$0F
	jeq     L22FE
	cmp     #$10
	jeq     L2302
	cmp     #$11
	jeq     L2306
	cmp     #$12
	jeq     L230A
	cmp     #$13
	jeq     L230E
	cmp     #$14
	jeq     L2312
	cmp     #$15
	jeq     L2316
	cmp     #$16
	jeq     L231A
	cmp     #$17
	jeq     L231E
	cmp     #$18
	jeq     L2322
	cmp     #$19
	jeq     L2326
	cmp     #$1A
	jeq     L232A
	cmp     #$1B
	jeq     L232E
	cmp     #$1C
	jeq     L2332
	cmp     #$1D
	jeq     L2336
	cmp     #$1E
	jeq     L233A
	cmp     #$1F
	jeq     L233E
	cmp     #$20
	jeq     L2342
	cmp     #$21
	jeq     L2346
	cmp     #$2C
	jeq     L234A
	cmp     #$2D
	jeq     L234E
	cmp     #$2E
	jeq     L2352
	cmp     #$2F
	jeq     L2356
	cmp     #$30
	jeq     L235A
	cmp     #$31
	jeq     L235E
	cmp     #$32
	jeq     L2362
	cmp     #$33
	jeq     L2366
	cmp     #$34
	jeq     L236A
	cmp     #$35
	jeq     L236E
	cmp     #$36
	jeq     L2372
	cmp     #$37
	jeq     L2376
	cmp     #$38
	jeq     L237A
	cmp     #$39
	jeq     L237E
	cmp     #$3A
	jeq     L2382
	cmp     #$3B
	jeq     L2386
	cmp     #$3C
	jeq     L238A
	cmp     #$3D
	jeq     L238E
	cmp     #$3E
	jeq     L2392
	cmp     #$3F
	jeq     L2396
	cmp     #$40
	jeq     L239D
	jmp     L239D
;
; case 0: pointer = marathon_man_alan0_data; break;
;
L22C2:	lda     #>(_marathon_man_alan0_data)
	sta     _pointer+1
	lda     #<(_marathon_man_alan0_data)
	jmp     L2420
;
; case 1: pointer = marathon_man_alan1_data; break;
;
L22C6:	lda     #>(_marathon_man_alan1_data)
	sta     _pointer+1
	lda     #<(_marathon_man_alan1_data)
	jmp     L2420
;
; case 2: pointer = marathon_man_alan2_data; break;
;
L22CA:	lda     #>(_marathon_man_alan2_data)
	sta     _pointer+1
	lda     #<(_marathon_man_alan2_data)
	jmp     L2420
;
; case 3: pointer = marathon_man_alan3_data; break;
;
L22CE:	lda     #>(_marathon_man_alan3_data)
	sta     _pointer+1
	lda     #<(_marathon_man_alan3_data)
	jmp     L2420
;
; case 4: pointer = marathon_man_alan4_data; break;
;
L22D2:	lda     #>(_marathon_man_alan4_data)
	sta     _pointer+1
	lda     #<(_marathon_man_alan4_data)
	jmp     L2420
;
; case 5: pointer = marathon_man_alan5_data; break; 
;
L22D6:	lda     #>(_marathon_man_alan5_data)
	sta     _pointer+1
	lda     #<(_marathon_man_alan5_data)
	jmp     L2420
;
; case 6: pointer = marathon_man_alan6_data; break;
;
L22DA:	lda     #>(_marathon_man_alan6_data)
	sta     _pointer+1
	lda     #<(_marathon_man_alan6_data)
	jmp     L2420
;
; case 7: pointer = marathon_man_alan7_data; break;
;
L22DE:	lda     #>(_marathon_man_alan7_data)
	sta     _pointer+1
	lda     #<(_marathon_man_alan7_data)
	jmp     L2420
;
; case 8: pointer = marathon_man_alan8_data; break;
;
L22E2:	lda     #>(_marathon_man_alan8_data)
	sta     _pointer+1
	lda     #<(_marathon_man_alan8_data)
	jmp     L2420
;
; case 9: pointer = marathon_man_alan9_data; break;
;
L22E6:	lda     #>(_marathon_man_alan9_data)
	sta     _pointer+1
	lda     #<(_marathon_man_alan9_data)
	jmp     L2420
;
; case 10: pointer = marathon_man_alan10_data; break;
;
L22EA:	lda     #>(_marathon_man_alan10_data)
	sta     _pointer+1
	lda     #<(_marathon_man_alan10_data)
	jmp     L2420
;
; case 11: pointer = marathon_man_alan11_data; break;
;
L22EE:	lda     #>(_marathon_man_alan11_data)
	sta     _pointer+1
	lda     #<(_marathon_man_alan11_data)
	jmp     L2420
;
; case 12: pointer = marathon_man_alan12_data; break;
;
L22F2:	lda     #>(_marathon_man_alan12_data)
	sta     _pointer+1
	lda     #<(_marathon_man_alan12_data)
	jmp     L2420
;
; case 13: pointer = marathon_man_alan13_data; break;
;
L22F6:	lda     #>(_marathon_man_alan13_data)
	sta     _pointer+1
	lda     #<(_marathon_man_alan13_data)
	jmp     L2420
;
; case 14: pointer = marathon_man_alan14_data; break;
;
L22FA:	lda     #>(_marathon_man_alan14_data)
	sta     _pointer+1
	lda     #<(_marathon_man_alan14_data)
	jmp     L2420
;
; case 15: pointer = marathon_man_alan15_data; break;
;
L22FE:	lda     #>(_marathon_man_alan15_data)
	sta     _pointer+1
	lda     #<(_marathon_man_alan15_data)
	jmp     L2420
;
; case 16: pointer = marathon_man_alan16_data; break;
;
L2302:	lda     #>(_marathon_man_alan16_data)
	sta     _pointer+1
	lda     #<(_marathon_man_alan16_data)
	jmp     L2420
;
; case 17: pointer = marathon_man_alan17_data; break;
;
L2306:	lda     #>(_marathon_man_alan17_data)
	sta     _pointer+1
	lda     #<(_marathon_man_alan17_data)
	jmp     L2420
;
; case 18: pointer = marathon_man_alan18_data; break;
;
L230A:	lda     #>(_marathon_man_alan18_data)
	sta     _pointer+1
	lda     #<(_marathon_man_alan18_data)
	jmp     L2420
;
; case 19: pointer = marathon_man_alan19_data; break;
;
L230E:	lda     #>(_marathon_man_alan19_data)
	sta     _pointer+1
	lda     #<(_marathon_man_alan19_data)
	jmp     L2420
;
; case 20: pointer = marathon_man_alan20_data; break;
;
L2312:	lda     #>(_marathon_man_alan20_data)
	sta     _pointer+1
	lda     #<(_marathon_man_alan20_data)
	jmp     L2420
;
; case 21: pointer = marathon_man_alan21_data; break;
;
L2316:	lda     #>(_marathon_man_alan21_data)
	sta     _pointer+1
	lda     #<(_marathon_man_alan21_data)
	jmp     L2420
;
; case 22: pointer = marathon_man_alan22_data; break;
;
L231A:	lda     #>(_marathon_man_alan22_data)
	sta     _pointer+1
	lda     #<(_marathon_man_alan22_data)
	jmp     L2420
;
; case 23: pointer = marathon_man_alan23_data; break;
;
L231E:	lda     #>(_marathon_man_alan23_data)
	sta     _pointer+1
	lda     #<(_marathon_man_alan23_data)
	jmp     L2420
;
; case 24: pointer = marathon_man_alan24_data; break;
;
L2322:	lda     #>(_marathon_man_alan24_data)
	sta     _pointer+1
	lda     #<(_marathon_man_alan24_data)
	jmp     L2420
;
; case 25: pointer = marathon_man_alan25_data; break;
;
L2326:	lda     #>(_marathon_man_alan25_data)
	sta     _pointer+1
	lda     #<(_marathon_man_alan25_data)
	jmp     L2420
;
; case 26: pointer = marathon_man_alan26_data; break;
;
L232A:	lda     #>(_marathon_man_alan26_data)
	sta     _pointer+1
	lda     #<(_marathon_man_alan26_data)
	jmp     L2420
;
; case 27: pointer = marathon_man_alan27_data; break;
;
L232E:	lda     #>(_marathon_man_alan27_data)
	sta     _pointer+1
	lda     #<(_marathon_man_alan27_data)
	jmp     L2420
;
; case 28: pointer = marathon_man_alan28_data; break;
;
L2332:	lda     #>(_marathon_man_alan28_data)
	sta     _pointer+1
	lda     #<(_marathon_man_alan28_data)
	jmp     L2420
;
; case 29: pointer = marathon_man_alan29_data; break;
;
L2336:	lda     #>(_marathon_man_alan29_data)
	sta     _pointer+1
	lda     #<(_marathon_man_alan29_data)
	jmp     L2420
;
; case 30: pointer = marathon_man_alan30_data; break;
;
L233A:	lda     #>(_marathon_man_alan30_data)
	sta     _pointer+1
	lda     #<(_marathon_man_alan30_data)
	jmp     L2420
;
; case 31: pointer = marathon_man_alan31_data; break;
;
L233E:	lda     #>(_marathon_man_alan31_data)
	sta     _pointer+1
	lda     #<(_marathon_man_alan31_data)
	jmp     L2420
;
; case 32: pointer = marathon_man_alan32_data; break;
;
L2342:	lda     #>(_marathon_man_alan32_data)
	sta     _pointer+1
	lda     #<(_marathon_man_alan32_data)
	jmp     L2420
;
; case 33: pointer = marathon_man_alan33_data; break;
;
L2346:	lda     #>(_marathon_man_alan33_data)
	sta     _pointer+1
	lda     #<(_marathon_man_alan33_data)
	jmp     L2420
;
; case 44: pointer = marathon_man_alan44_data; break;
;
L234A:	lda     #>(_marathon_man_alan44_data)
	sta     _pointer+1
	lda     #<(_marathon_man_alan44_data)
	jmp     L2420
;
; case 45: pointer = marathon_man_alan45_data; break;
;
L234E:	lda     #>(_marathon_man_alan45_data)
	sta     _pointer+1
	lda     #<(_marathon_man_alan45_data)
	jmp     L2420
;
; case 46: pointer = marathon_man_alan46_data; break;
;
L2352:	lda     #>(_marathon_man_alan46_data)
	sta     _pointer+1
	lda     #<(_marathon_man_alan46_data)
	jmp     L2420
;
; case 47: pointer = marathon_man_alan47_data; break;
;
L2356:	lda     #>(_marathon_man_alan47_data)
	sta     _pointer+1
	lda     #<(_marathon_man_alan47_data)
	jmp     L2420
;
; case 48: pointer = marathon_man_alan48_data; break;
;
L235A:	lda     #>(_marathon_man_alan48_data)
	sta     _pointer+1
	lda     #<(_marathon_man_alan48_data)
	jmp     L2420
;
; case 49: pointer = marathon_man_alan49_data; break;
;
L235E:	lda     #>(_marathon_man_alan49_data)
	sta     _pointer+1
	lda     #<(_marathon_man_alan49_data)
	jmp     L2420
;
; case 50: pointer = marathon_man_alan50_data; break;
;
L2362:	lda     #>(_marathon_man_alan50_data)
	sta     _pointer+1
	lda     #<(_marathon_man_alan50_data)
	jmp     L2420
;
; case 51: pointer = marathon_man_alan51_data; break;
;
L2366:	lda     #>(_marathon_man_alan51_data)
	sta     _pointer+1
	lda     #<(_marathon_man_alan51_data)
	jmp     L2420
;
; case 52: pointer = marathon_man_alan52_data; break;
;
L236A:	lda     #>(_marathon_man_alan52_data)
	sta     _pointer+1
	lda     #<(_marathon_man_alan52_data)
	jmp     L2420
;
; case 53: pointer = marathon_man_alan53_data; break;
;
L236E:	lda     #>(_marathon_man_alan53_data)
	sta     _pointer+1
	lda     #<(_marathon_man_alan53_data)
	jmp     L2420
;
; case 54: pointer = marathon_man_alan54_data; break;
;
L2372:	lda     #>(_marathon_man_alan54_data)
	sta     _pointer+1
	lda     #<(_marathon_man_alan54_data)
	jmp     L2420
;
; case 55: pointer = marathon_man_alan55_data; break;
;
L2376:	lda     #>(_marathon_man_alan55_data)
	sta     _pointer+1
	lda     #<(_marathon_man_alan55_data)
	jmp     L2420
;
; case 56: pointer = marathon_man_alan56_data; break;
;
L237A:	lda     #>(_marathon_man_alan56_data)
	sta     _pointer+1
	lda     #<(_marathon_man_alan56_data)
	jmp     L2420
;
; case 57: pointer = marathon_man_alan57_data; break;
;
L237E:	lda     #>(_marathon_man_alan57_data)
	sta     _pointer+1
	lda     #<(_marathon_man_alan57_data)
	jmp     L2420
;
; case 58: pointer = marathon_man_alan58_data; break;
;
L2382:	lda     #>(_marathon_man_alan58_data)
	sta     _pointer+1
	lda     #<(_marathon_man_alan58_data)
	jmp     L2420
;
; case 59: pointer = marathon_man_alan59_data; break;
;
L2386:	lda     #>(_marathon_man_alan59_data)
	sta     _pointer+1
	lda     #<(_marathon_man_alan59_data)
	jmp     L2420
;
; case 60: pointer = marathon_man_alan60_data; break;
;
L238A:	lda     #>(_marathon_man_alan60_data)
	sta     _pointer+1
	lda     #<(_marathon_man_alan60_data)
	jmp     L2420
;
; case 61: pointer = marathon_man_alan61_data; break;
;
L238E:	lda     #>(_marathon_man_alan61_data)
	sta     _pointer+1
	lda     #<(_marathon_man_alan61_data)
	jmp     L2420
;
; case 62: pointer = marathon_man_alan62_data; break;
;
L2392:	lda     #>(_marathon_man_alan62_data)
	sta     _pointer+1
	lda     #<(_marathon_man_alan62_data)
	jmp     L2420
;
; case 63: pointer = marathon_man_alan63_data; break;
;
L2396:	lda     #>(_marathon_man_alan63_data)
	sta     _pointer+1
	lda     #<(_marathon_man_alan63_data)
	jmp     L2420
;
; default: pointer = marathon_man_alan64_data; break;
;
L239D:	lda     #>(_marathon_man_alan64_data)
	sta     _pointer+1
	lda     #<(_marathon_man_alan64_data)
L2420:	sta     _pointer
;
; oam_meta_spr(40, 10, pointer);
;
	jsr     decsp2
	lda     #$28
	ldy     #$01
	sta     (sp),y
	lda     #$0A
	dey
	sta     (sp),y
	lda     _pointer
	ldx     _pointer+1
	jmp     _oam_meta_spr

.endproc

; ---------------------------------------------------------------
; void __near__ process_powerpad (void)
; ---------------------------------------------------------------

.segment	"CODE"

.proc	_process_powerpad: near

.segment	"CODE"

;
; powerpad_new = (powerpad_cur^powerpad_old)&powerpad_cur;
;
	lda     _powerpad_old
	eor     _powerpad_cur
	sta     ptr1
	lda     _powerpad_old+1
	eor     _powerpad_cur+1
	sta     ptr1+1
	lda     _powerpad_cur
	and     ptr1
	sta     _powerpad_new
	lda     _powerpad_cur+1
	and     ptr1+1
	sta     _powerpad_new+1
;
; powerpad_old = powerpad_cur;
;
	lda     _powerpad_cur+1
	sta     _powerpad_old+1
	lda     _powerpad_cur
	sta     _powerpad_old
;
; } 
;
	rts

.endproc

; ---------------------------------------------------------------
; void __near__ main (void)
; ---------------------------------------------------------------

.segment	"CODE"

.proc	_main: near

.segment	"CODE"

;
; clear_vram_buffer(); 
;
	jsr     _clear_vram_buffer
;
; set_vram_buffer();
;
	jsr     _set_vram_buffer
;
; ppu_off(); // screen off
;
	jsr     _ppu_off
;
; bank_spr(1);
;
	lda     #$01
	jsr     _bank_spr
;
; game_mode = MODE_TITLE;
;
	lda     #$00
	sta     _game_mode
;
; load_title();
;
	jsr     _load_title
;
; ppu_on_all(); // turn on screen
;
	jsr     _ppu_on_all
;
; while(game_mode == MODE_TITLE){
;
	jmp     L2423
;
; ppu_wait_nmi();
;
L1FB9:	jsr     _ppu_wait_nmi
;
; ++title_frame_counter;
;
	inc     _title_frame_counter
;
; if(title_frame_counter >= 4){
;
	lda     _title_frame_counter
	cmp     #$04
	bcc     L1FC3
;
; title_frame_counter = 0;
;
	lda     #$00
	sta     _title_frame_counter
;
; if(title_animation_frame <= 64){
;
	lda     _title_animation_frame
	cmp     #$41
	bcs     L1FC3
;
; ++title_animation_frame;
;
	inc     _title_animation_frame
;
; oam_clear();
;
L1FC3:	jsr     _oam_clear
;
; set_signature_sprite();
;
	jsr     _set_signature_sprite
;
; debug_controller = pad_poll(0);
;
	lda     #$00
	jsr     _pad_poll
	sta     _debug_controller
;
; debug_controller_new = get_pad_new(0);
;
	lda     #$00
	jsr     _get_pad_new
	sta     _debug_controller_new
;
; if(debug_controller_new & PAD_START){
;
	and     #$10
	beq     L2423
;
; init_options();
;
	jsr     _init_options
;
; while(game_mode == MODE_TITLE){
;
L2423:	lda     _game_mode
	beq     L1FB9
;
; while(game_mode == MODE_OPTIONS){
;
	jmp     L2427
;
; ppu_wait_nmi();
;
L1FD1:	jsr     _ppu_wait_nmi
;
; debug_controller = pad_poll(0);
;
	lda     #$00
	jsr     _pad_poll
	sta     _debug_controller
;
; debug_controller_new = get_pad_new(0);
;
	lda     #$00
	jsr     _get_pad_new
	sta     _debug_controller_new
;
; if(debug_controller_new & PAD_UP){
;
	and     #$08
	beq     L2424
;
; if(selected_option > 0) --selected_option;
;
	lda     _selected_option
	beq     L1FDE
	dec     _selected_option
;
; draw_options_screen();
;
L1FDE:	jsr     _draw_options_screen
;
; if(debug_controller_new & PAD_DOWN){
;
L2424:	lda     _debug_controller_new
	and     #$04
	beq     L2425
;
; if(selected_option < 2) ++selected_option;
;
	lda     _selected_option
	cmp     #$02
	bcs     L1FE4
	inc     _selected_option
;
; draw_options_screen();
;
L1FE4:	jsr     _draw_options_screen
;
; if(debug_controller_new & PAD_START || debug_controller_new & PAD_A){
;
L2425:	lda     _debug_controller_new
	and     #$10
	bne     L2426
	lda     _debug_controller_new
	and     #$80
	beq     L2427
;
; race_type = selected_option;
;
L2426:	lda     _selected_option
	sta     _race_type
;
; init_mode_game();
;
	jsr     _init_mode_game
;
; while(game_mode == MODE_OPTIONS){
;
L2427:	lda     _game_mode
	cmp     #$01
	beq     L1FD1
;
; while(game_mode == MODE_GAME){
;
	jmp     L2432
;
; ppu_wait_nmi(); // wait till beginning of the frame
;
L1FEE:	jsr     _ppu_wait_nmi
;
; set_sprite_zero();
;
	jsr     _set_sprite_zero
;
; split(scroll_x);
;
	lda     _scroll_x
	ldx     _scroll_x+1
	jsr     _split
;
; set_scroll_x(0);
;
	ldx     #$00
	txa
	jsr     _set_scroll_x
;
; set_scroll_y(0xff);
;
	ldx     #$00
	lda     #$FF
	jsr     _set_scroll_y
;
; ++frame_counter;
;
	inc     _frame_counter
;
; ++scroll_timer;
;
	inc     _scroll_timer
;
; if(time_since_button_press < 255){
;
	lda     _time_since_button_press
	cmp     #$FF
	bcs     L2428
;
; ++time_since_button_press;
;
	inc     _time_since_button_press
;
; if(motion == RUNNING && scroll_timer >= 8){
;
L2428:	lda     _motion
	bne     L242B
	lda     _scroll_timer
	cmp     #$08
	bcc     L242B
;
; scroll_timer = 0;
;
	lda     #$00
	sta     _scroll_timer
;
; scroll_x += 2;
;
	lda     #$02
	clc
	adc     _scroll_x
	sta     _scroll_x
	bcc     L242F
	inc     _scroll_x+1
;
; } else if(motion == WALKING && scroll_timer >= 16){
;
	jmp     L242F
L242B:	lda     _motion
	cmp     #$01
	bne     L242E
	lda     _scroll_timer
	cmp     #$10
	bcc     L242E
;
; scroll_timer = 0;
;
	lda     #$00
	sta     _scroll_timer
;
; ++scroll_x;
;
	inc     _scroll_x
	bne     L242F
	inc     _scroll_x+1
;
; } else if(motion == STANDING){
;
	jmp     L242F
L242E:	lda     _motion
	cmp     #$02
	bne     L242F
;
; scroll_timer = 0;
;
	lda     #$00
	sta     _scroll_timer
;
; if(step_button_lockout > 0){
;
L242F:	lda     _step_button_lockout
	beq     L2430
;
; --step_button_lockout;
;
	dec     _step_button_lockout
;
; if(frame_counter >= 60){
;
L2430:	lda     _frame_counter
	cmp     #$3C
	lda     #$00
	bcc     L2431
;
; frame_counter = 0;
;
	sta     _frame_counter
;
; add_second();
;
	jsr     _add_second
;
; debug_controller = pad_poll(0); //for debugging only
;
	lda     #$00
L2431:	jsr     _pad_poll
	sta     _debug_controller
;
; debug_controller_new = get_pad_new(0);  
;
	lda     #$00
	jsr     _get_pad_new
	sta     _debug_controller_new
;
; powerpad_cur = read_powerpad(1);
;
	lda     #$01
	jsr     _read_powerpad
	sta     _powerpad_cur
	stx     _powerpad_cur+1
;
; process_powerpad(); // goes after the read
;
	jsr     _process_powerpad
;
; check_motion();
;
	jsr     _check_motion
;
; draw_sprite();
;
	jsr     _draw_sprite
;
; draw_hud();
;
	jsr     _draw_hud
;
; process_controller();
;
	jsr     _process_controller
;
; while(game_mode == MODE_GAME){
;
L2432:	lda     _game_mode
	cmp     #$02
	jeq     L1FEE
;
; while (1){
;
	jmp     L2423

.endproc

; ---------------------------------------------------------------
; void __near__ clear_background (void)
; ---------------------------------------------------------------

.segment	"CODE"

.proc	_clear_background: near

.segment	"CODE"

;
; vram_adr(NAMETABLE_A);
;
	ldx     #$20
	lda     #$00
	jsr     _vram_adr
;
; for (largeindex = 0; largeindex < 1024; ++largeindex)
;
	lda     #$00
	sta     _largeindex
	sta     _largeindex+1
L23C8:	ldx     _largeindex+1
	cpx     #$04
	bcs     L23C9
;
; vram_put(0x00);
;
	lda     #$00
	jsr     _vram_put
;
; flush_vram_update2();
;
	jsr     _flush_vram_update2
;
; for (largeindex = 0; largeindex < 1024; ++largeindex)
;
	inc     _largeindex
	bne     L23C8
	inc     _largeindex+1
	jmp     L23C8
;
; }
;
L23C9:	rts

.endproc

