;
; File generated by cc65 v 2.18 - N/A
;
	.fopt		compiler,"cc65 v 2.18 - N/A"
	.setcpu		"6502"
	.smart		on
	.autoimport	on
	.case		on
	.debuginfo	off
	.importzp	sp, sreg, regsave, regbank
	.importzp	tmp1, tmp2, tmp3, tmp4, ptr1, ptr2, ptr3, ptr4
	.macpack	longbranch
	.forceimport	__STARTUP__
	.import		_pal_bg
	.import		_pal_spr
	.import		_ppu_wait_nmi
	.import		_ppu_off
	.import		_ppu_on_all
	.import		_oam_clear
	.import		_oam_spr
	.import		_oam_meta_spr
	.import		_oam_set
	.import		_pad_poll
	.import		_split
	.import		_bank_spr
	.import		_vram_adr
	.import		_vram_put
	.import		_vram_fill
	.import		_set_vram_buffer
	.import		_one_vram_buffer
	.import		_multi_vram_buffer_horz
	.import		_clear_vram_buffer
	.import		_get_pad_new
	.import		_set_scroll_x
	.import		_set_scroll_y
	.import		_flush_vram_update2
	.import		_read_powerpad
	.export		_powerpad_cur
	.export		_powerpad_old
	.export		_powerpad_new
	.export		_debug_controller
	.export		_debug_controller_new
	.export		_temp_int
	.export		_last_step
	.export		_steps
	.export		_ones_step
	.export		_tens_step
	.export		_hundreds_step
	.export		_thousands_step
	.export		_ten_thousands_step
	.export		_steps_per_minute
	.export		_hundreds_spm
	.export		_tens_spm
	.export		_ones_spm
	.export		_seconds
	.export		_ones_seconds
	.export		_tens_seconds
	.export		_ones_minutes
	.export		_tens_minutes
	.export		_ones_hours
	.export		_tens_hours
	.export		_frame_counter
	.export		_step_button_lockout
	.export		_motion_counter
	.export		_time_since_button_press
	.export		_motion
	.export		_was_running
	.export		_was_walking
	.export		_index
	.export		_mph
	.export		_sprite_timer
	.export		_sprite_frame_counter
	.export		_title_animation_frame
	.export		_title_frame_counter
	.export		_options_cursor_frame
	.export		_options_cursor_timer
	.export		_scroll_x
	.export		_scroll_subpixel
	.export		_velocity
	.export		_largeindex
	.export		_pointer
	.export		_scroll_timer
	.export		_total_steps_needed
	.export		_game_mode
	.export		_selected_option
	.export		_race_type
	.export		_add_step
	.export		_add_second
	.export		_initial_steps_conversion
	.export		_initial_timer_conversion
	.export		_check_motion
	.export		_load_room
	.export		_draw_sprite
	.export		_draw_hud
	.export		_process_controller
	.export		_set_sprite_zero
	.export		_update_steps_per_minute
	.export		_load_title
	.export		_init_mode_game
	.export		_init_options
	.export		_init_win_screen
	.export		_draw_options_screen
	.export		_set_signature_sprite
	.export		_trackflowers
	.export		_title
	.export		_marathon_man_run1_data
	.export		_marathon_man_run2_data
	.export		_marathon_man_run3_data
	.export		_marathon_man_run4_data
	.export		_marathon_man_run5_data
	.export		_marathon_man_run6_data
	.export		_marathon_man_walk1_data
	.export		_marathon_man_walk2_data
	.export		_marathon_man_walk3_data
	.export		_marathon_man_walk4_data
	.export		_marathon_man_cursor1_data
	.export		_marathon_man_cursor2_data
	.export		_marathon_man_cursor3_data
	.export		_marathon_man_1_data
	.export		_marathon_man_2_data
	.export		_marathon_man_3_data
	.export		_marathon_man_4_data
	.export		_marathon_man_5_data
	.export		_marathon_man_6_data
	.export		_marathon_man_7_data
	.export		_marathon_man_8_data
	.export		_marathon_man_9_data
	.export		_marathon_man_10_data
	.export		_marathon_man_11_data
	.export		_marathon_man_12_data
	.export		_marathon_man_alan0_data
	.export		_marathon_man_alan1_data
	.export		_marathon_man_alan2_data
	.export		_marathon_man_alan3_data
	.export		_marathon_man_alan4_data
	.export		_marathon_man_alan5_data
	.export		_marathon_man_alan6_data
	.export		_marathon_man_alan7_data
	.export		_marathon_man_alan8_data
	.export		_marathon_man_alan9_data
	.export		_marathon_man_alan10_data
	.export		_marathon_man_alan11_data
	.export		_marathon_man_alan12_data
	.export		_marathon_man_alan13_data
	.export		_marathon_man_alan14_data
	.export		_marathon_man_alan15_data
	.export		_marathon_man_alan16_data
	.export		_marathon_man_alan17_data
	.export		_marathon_man_alan18_data
	.export		_marathon_man_alan19_data
	.export		_marathon_man_alan20_data
	.export		_marathon_man_alan21_data
	.export		_marathon_man_alan22_data
	.export		_marathon_man_alan23_data
	.export		_marathon_man_alan24_data
	.export		_marathon_man_alan25_data
	.export		_marathon_man_alan26_data
	.export		_marathon_man_alan27_data
	.export		_marathon_man_alan28_data
	.export		_marathon_man_alan29_data
	.export		_marathon_man_alan30_data
	.export		_marathon_man_alan31_data
	.export		_marathon_man_alan32_data
	.export		_marathon_man_alan33_data
	.export		_marathon_man_alan34_data
	.export		_marathon_man_alan35_data
	.export		_marathon_man_alan36_data
	.export		_marathon_man_alan37_data
	.export		_marathon_man_alan38_data
	.export		_marathon_man_alan39_data
	.export		_marathon_man_alan40_data
	.export		_marathon_man_alan41_data
	.export		_marathon_man_alan42_data
	.export		_marathon_man_alan43_data
	.export		_marathon_man_alan44_data
	.export		_marathon_man_alan45_data
	.export		_marathon_man_alan46_data
	.export		_marathon_man_alan47_data
	.export		_marathon_man_alan48_data
	.export		_marathon_man_alan49_data
	.export		_marathon_man_alan50_data
	.export		_marathon_man_alan51_data
	.export		_marathon_man_alan52_data
	.export		_marathon_man_alan53_data
	.export		_marathon_man_alan54_data
	.export		_palette_sprites
	.export		_palette_bg
	.export		_process_powerpad
	.export		_main
	.export		_clear_background

.segment	"RODATA"

_trackflowers:
	.byte	$00
	.byte	$00
	.byte	$00
	.byte	$00
	.byte	$00
	.byte	$00
	.byte	$00
	.byte	$00
	.byte	$00
	.byte	$00
	.byte	$00
	.byte	$00
	.byte	$00
	.byte	$00
	.byte	$00
	.byte	$00
	.byte	$00
	.byte	$00
	.byte	$00
	.byte	$00
	.byte	$00
	.byte	$00
	.byte	$00
	.byte	$00
	.byte	$00
	.byte	$00
	.byte	$00
	.byte	$00
	.byte	$00
	.byte	$00
	.byte	$00
	.byte	$00
	.byte	$00
	.byte	$00
	.byte	$00
	.byte	$00
	.byte	$00
	.byte	$00
	.byte	$00
	.byte	$00
	.byte	$00
	.byte	$00
	.byte	$00
	.byte	$00
	.byte	$00
	.byte	$00
	.byte	$00
	.byte	$00
	.byte	$00
	.byte	$00
	.byte	$00
	.byte	$00
	.byte	$00
	.byte	$00
	.byte	$00
	.byte	$00
	.byte	$00
	.byte	$00
	.byte	$00
	.byte	$00
	.byte	$00
	.byte	$00
	.byte	$00
	.byte	$00
	.byte	$00
	.byte	$00
	.byte	$00
	.byte	$00
	.byte	$00
	.byte	$00
	.byte	$00
	.byte	$00
	.byte	$00
	.byte	$00
	.byte	$00
	.byte	$00
	.byte	$00
	.byte	$00
	.byte	$00
	.byte	$00
	.byte	$00
	.byte	$00
	.byte	$00
	.byte	$00
	.byte	$00
	.byte	$00
	.byte	$00
	.byte	$00
	.byte	$00
	.byte	$00
	.byte	$00
	.byte	$00
	.byte	$00
	.byte	$00
	.byte	$00
	.byte	$00
	.byte	$00
	.byte	$00
	.byte	$00
	.byte	$00
	.byte	$00
	.byte	$00
	.byte	$00
	.byte	$00
	.byte	$00
	.byte	$00
	.byte	$00
	.byte	$00
	.byte	$00
	.byte	$00
	.byte	$00
	.byte	$00
	.byte	$00
	.byte	$00
	.byte	$00
	.byte	$00
	.byte	$00
	.byte	$00
	.byte	$00
	.byte	$00
	.byte	$00
	.byte	$00
	.byte	$00
	.byte	$00
	.byte	$00
	.byte	$00
	.byte	$00
	.byte	$00
	.byte	$00
	.byte	$00
	.byte	$00
	.byte	$00
	.byte	$00
	.byte	$00
	.byte	$00
	.byte	$00
	.byte	$00
	.byte	$00
	.byte	$00
	.byte	$00
	.byte	$00
	.byte	$00
	.byte	$00
	.byte	$00
	.byte	$00
	.byte	$00
	.byte	$00
	.byte	$00
	.byte	$00
	.byte	$00
	.byte	$00
	.byte	$00
	.byte	$00
	.byte	$00
	.byte	$00
	.byte	$00
	.byte	$00
	.byte	$00
	.byte	$00
	.byte	$00
	.byte	$00
	.byte	$00
	.byte	$00
	.byte	$00
	.byte	$00
	.byte	$00
	.byte	$00
	.byte	$00
	.byte	$00
	.byte	$00
	.byte	$00
	.byte	$00
	.byte	$00
	.byte	$00
	.byte	$00
	.byte	$00
	.byte	$00
	.byte	$00
	.byte	$00
	.byte	$00
	.byte	$00
	.byte	$00
	.byte	$00
	.byte	$00
	.byte	$00
	.byte	$00
	.byte	$00
	.byte	$00
	.byte	$00
	.byte	$00
	.byte	$00
	.byte	$00
	.byte	$00
	.byte	$00
	.byte	$00
	.byte	$00
	.byte	$00
	.byte	$00
	.byte	$00
	.byte	$00
	.byte	$00
	.byte	$00
	.byte	$00
	.byte	$00
	.byte	$00
	.byte	$00
	.byte	$00
	.byte	$00
	.byte	$00
	.byte	$00
	.byte	$00
	.byte	$00
	.byte	$00
	.byte	$00
	.byte	$00
	.byte	$00
	.byte	$00
	.byte	$00
	.byte	$00
	.byte	$00
	.byte	$00
	.byte	$00
	.byte	$00
	.byte	$00
	.byte	$00
	.byte	$00
	.byte	$00
	.byte	$00
	.byte	$00
	.byte	$00
	.byte	$00
	.byte	$00
	.byte	$00
	.byte	$00
	.byte	$00
	.byte	$00
	.byte	$00
	.byte	$00
	.byte	$00
	.byte	$00
	.byte	$00
	.byte	$00
	.byte	$00
	.byte	$00
	.byte	$00
	.byte	$00
	.byte	$00
	.byte	$00
	.byte	$00
	.byte	$00
	.byte	$00
	.byte	$00
	.byte	$00
	.byte	$00
	.byte	$00
	.byte	$00
	.byte	$00
	.byte	$00
	.byte	$5E
	.byte	$5F
	.byte	$00
	.byte	$00
	.byte	$00
	.byte	$00
	.byte	$00
	.byte	$00
	.byte	$00
	.byte	$00
	.byte	$00
	.byte	$00
	.byte	$00
	.byte	$00
	.byte	$00
	.byte	$00
	.byte	$00
	.byte	$00
	.byte	$00
	.byte	$00
	.byte	$00
	.byte	$00
	.byte	$00
	.byte	$00
	.byte	$00
	.byte	$00
	.byte	$00
	.byte	$7E
	.byte	$7F
	.byte	$00
	.byte	$00
	.byte	$00
	.byte	$00
	.byte	$6C
	.byte	$6D
	.byte	$6D
	.byte	$6D
	.byte	$6D
	.byte	$6C
	.byte	$6D
	.byte	$6D
	.byte	$6D
	.byte	$6D
	.byte	$6C
	.byte	$6D
	.byte	$6D
	.byte	$6D
	.byte	$6D
	.byte	$6C
	.byte	$6D
	.byte	$6D
	.byte	$6D
	.byte	$6D
	.byte	$6C
	.byte	$6D
	.byte	$6D
	.byte	$6D
	.byte	$6D
	.byte	$6C
	.byte	$5D
	.byte	$00
	.byte	$00
	.byte	$00
	.byte	$00
	.byte	$00
	.byte	$00
	.byte	$00
	.byte	$00
	.byte	$00
	.byte	$00
	.byte	$00
	.byte	$00
	.byte	$00
	.byte	$00
	.byte	$00
	.byte	$00
	.byte	$00
	.byte	$00
	.byte	$00
	.byte	$00
	.byte	$00
	.byte	$00
	.byte	$00
	.byte	$00
	.byte	$00
	.byte	$00
	.byte	$00
	.byte	$00
	.byte	$00
	.byte	$00
	.byte	$00
	.byte	$00
	.byte	$00
	.byte	$00
	.byte	$00
	.byte	$00
	.byte	$00
	.byte	$00
	.byte	$00
	.byte	$00
	.byte	$00
	.byte	$00
	.byte	$00
	.byte	$00
	.byte	$00
	.byte	$00
	.byte	$00
	.byte	$00
	.byte	$00
	.byte	$00
	.byte	$00
	.byte	$00
	.byte	$00
	.byte	$00
	.byte	$00
	.byte	$00
	.byte	$00
	.byte	$00
	.byte	$00
	.byte	$00
	.byte	$00
	.byte	$00
	.byte	$00
	.byte	$00
	.byte	$00
	.byte	$00
	.byte	$00
	.byte	$00
	.byte	$00
	.byte	$00
	.byte	$00
	.byte	$00
	.byte	$00
	.byte	$00
	.byte	$00
	.byte	$00
	.byte	$00
	.byte	$00
	.byte	$00
	.byte	$00
	.byte	$00
	.byte	$00
	.byte	$00
	.byte	$00
	.byte	$00
	.byte	$00
	.byte	$00
	.byte	$00
	.byte	$00
	.byte	$00
	.byte	$00
	.byte	$00
	.byte	$00
	.byte	$00
	.byte	$00
	.byte	$00
	.byte	$00
	.byte	$00
	.byte	$00
	.byte	$00
	.byte	$00
	.byte	$00
	.byte	$00
	.byte	$00
	.byte	$00
	.byte	$00
	.byte	$00
	.byte	$00
	.byte	$00
	.byte	$00
	.byte	$00
	.byte	$00
	.byte	$00
	.byte	$00
	.byte	$00
	.byte	$00
	.byte	$00
	.byte	$00
	.byte	$00
	.byte	$00
	.byte	$00
	.byte	$00
	.byte	$00
	.byte	$00
	.byte	$00
	.byte	$00
	.byte	$00
	.byte	$00
	.byte	$00
	.byte	$00
	.byte	$69
	.byte	$6A
	.byte	$6B
	.byte	$66
	.byte	$67
	.byte	$68
	.byte	$66
	.byte	$67
	.byte	$68
	.byte	$69
	.byte	$6A
	.byte	$6B
	.byte	$69
	.byte	$6A
	.byte	$6B
	.byte	$69
	.byte	$6A
	.byte	$6B
	.byte	$69
	.byte	$6A
	.byte	$6B
	.byte	$66
	.byte	$67
	.byte	$68
	.byte	$69
	.byte	$6A
	.byte	$6B
	.byte	$66
	.byte	$67
	.byte	$67
	.byte	$6A
	.byte	$6B
	.byte	$02
	.byte	$02
	.byte	$02
	.byte	$64
	.byte	$02
	.byte	$02
	.byte	$65
	.byte	$02
	.byte	$02
	.byte	$02
	.byte	$65
	.byte	$02
	.byte	$02
	.byte	$02
	.byte	$02
	.byte	$02
	.byte	$65
	.byte	$02
	.byte	$63
	.byte	$65
	.byte	$02
	.byte	$02
	.byte	$02
	.byte	$02
	.byte	$63
	.byte	$02
	.byte	$02
	.byte	$02
	.byte	$02
	.byte	$02
	.byte	$02
	.byte	$63
	.byte	$02
	.byte	$65
	.byte	$02
	.byte	$02
	.byte	$02
	.byte	$02
	.byte	$02
	.byte	$02
	.byte	$02
	.byte	$02
	.byte	$02
	.byte	$02
	.byte	$02
	.byte	$64
	.byte	$64
	.byte	$64
	.byte	$02
	.byte	$02
	.byte	$02
	.byte	$02
	.byte	$64
	.byte	$02
	.byte	$02
	.byte	$65
	.byte	$02
	.byte	$02
	.byte	$02
	.byte	$89
	.byte	$02
	.byte	$63
	.byte	$64
	.byte	$02
	.byte	$02
	.byte	$02
	.byte	$02
	.byte	$86
	.byte	$87
	.byte	$02
	.byte	$88
	.byte	$02
	.byte	$86
	.byte	$02
	.byte	$02
	.byte	$87
	.byte	$65
	.byte	$02
	.byte	$02
	.byte	$02
	.byte	$02
	.byte	$65
	.byte	$64
	.byte	$64
	.byte	$02
	.byte	$02
	.byte	$02
	.byte	$02
	.byte	$87
	.byte	$88
	.byte	$02
	.byte	$02
	.byte	$02
	.byte	$63
	.byte	$02
	.byte	$02
	.byte	$02
	.byte	$65
	.byte	$02
	.byte	$96
	.byte	$97
	.byte	$64
	.byte	$98
	.byte	$02
	.byte	$96
	.byte	$63
	.byte	$02
	.byte	$97
	.byte	$88
	.byte	$02
	.byte	$02
	.byte	$A3
	.byte	$A4
	.byte	$A4
	.byte	$A4
	.byte	$A4
	.byte	$A5
	.byte	$02
	.byte	$02
	.byte	$63
	.byte	$97
	.byte	$98
	.byte	$02
	.byte	$02
	.byte	$02
	.byte	$02
	.byte	$02
	.byte	$88
	.byte	$02
	.byte	$65
	.byte	$02
	.byte	$64
	.byte	$02
	.byte	$02
	.byte	$02
	.byte	$02
	.byte	$02
	.byte	$02
	.byte	$02
	.byte	$02
	.byte	$98
	.byte	$02
	.byte	$02
	.byte	$B3
	.byte	$B4
	.byte	$B5
	.byte	$B5
	.byte	$B4
	.byte	$B6
	.byte	$02
	.byte	$02
	.byte	$02
	.byte	$02
	.byte	$02
	.byte	$02
	.byte	$65
	.byte	$02
	.byte	$65
	.byte	$02
	.byte	$98
	.byte	$60
	.byte	$60
	.byte	$60
	.byte	$60
	.byte	$60
	.byte	$60
	.byte	$60
	.byte	$60
	.byte	$60
	.byte	$60
	.byte	$60
	.byte	$60
	.byte	$60
	.byte	$60
	.byte	$15
	.byte	$16
	.byte	$15
	.byte	$16
	.byte	$17
	.byte	$15
	.byte	$16
	.byte	$15
	.byte	$60
	.byte	$60
	.byte	$60
	.byte	$60
	.byte	$60
	.byte	$60
	.byte	$60
	.byte	$60
	.byte	$60
	.byte	$60
	.byte	$75
	.byte	$01
	.byte	$84
	.byte	$73
	.byte	$75
	.byte	$01
	.byte	$01
	.byte	$74
	.byte	$01
	.byte	$75
	.byte	$73
	.byte	$01
	.byte	$84
	.byte	$01
	.byte	$75
	.byte	$01
	.byte	$01
	.byte	$75
	.byte	$73
	.byte	$01
	.byte	$84
	.byte	$75
	.byte	$01
	.byte	$73
	.byte	$85
	.byte	$75
	.byte	$73
	.byte	$84
	.byte	$75
	.byte	$01
	.byte	$75
	.byte	$01
	.byte	$01
	.byte	$01
	.byte	$01
	.byte	$84
	.byte	$85
	.byte	$01
	.byte	$75
	.byte	$01
	.byte	$75
	.byte	$01
	.byte	$85
	.byte	$84
	.byte	$85
	.byte	$75
	.byte	$84
	.byte	$75
	.byte	$01
	.byte	$01
	.byte	$01
	.byte	$84
	.byte	$01
	.byte	$74
	.byte	$84
	.byte	$84
	.byte	$01
	.byte	$01
	.byte	$01
	.byte	$84
	.byte	$01
	.byte	$83
	.byte	$01
	.byte	$01
	.byte	$01
	.byte	$75
	.byte	$01
	.byte	$01
	.byte	$84
	.byte	$01
	.byte	$84
	.byte	$01
	.byte	$01
	.byte	$01
	.byte	$01
	.byte	$75
	.byte	$84
	.byte	$01
	.byte	$84
	.byte	$01
	.byte	$84
	.byte	$01
	.byte	$01
	.byte	$85
	.byte	$84
	.byte	$01
	.byte	$85
	.byte	$01
	.byte	$84
	.byte	$75
	.byte	$01
	.byte	$85
	.byte	$84
	.byte	$01
	.byte	$74
	.byte	$01
	.byte	$01
	.byte	$74
	.byte	$01
	.byte	$75
	.byte	$85
	.byte	$84
	.byte	$01
	.byte	$01
	.byte	$75
	.byte	$74
	.byte	$01
	.byte	$85
	.byte	$01
	.byte	$85
	.byte	$75
	.byte	$75
	.byte	$01
	.byte	$75
	.byte	$01
	.byte	$75
	.byte	$01
	.byte	$84
	.byte	$75
	.byte	$01
	.byte	$75
	.byte	$75
	.byte	$84
	.byte	$85
	.byte	$75
	.byte	$84
	.byte	$83
	.byte	$01
	.byte	$61
	.byte	$61
	.byte	$61
	.byte	$61
	.byte	$61
	.byte	$72
	.byte	$61
	.byte	$61
	.byte	$61
	.byte	$61
	.byte	$61
	.byte	$61
	.byte	$61
	.byte	$61
	.byte	$61
	.byte	$72
	.byte	$61
	.byte	$61
	.byte	$61
	.byte	$61
	.byte	$61
	.byte	$72
	.byte	$72
	.byte	$61
	.byte	$61
	.byte	$61
	.byte	$61
	.byte	$61
	.byte	$61
	.byte	$72
	.byte	$72
	.byte	$61
	.byte	$02
	.byte	$02
	.byte	$64
	.byte	$02
	.byte	$02
	.byte	$02
	.byte	$65
	.byte	$64
	.byte	$02
	.byte	$02
	.byte	$02
	.byte	$02
	.byte	$02
	.byte	$02
	.byte	$02
	.byte	$02
	.byte	$02
	.byte	$65
	.byte	$64
	.byte	$02
	.byte	$02
	.byte	$02
	.byte	$64
	.byte	$02
	.byte	$02
	.byte	$02
	.byte	$02
	.byte	$02
	.byte	$65
	.byte	$65
	.byte	$64
	.byte	$02
	.byte	$76
	.byte	$77
	.byte	$78
	.byte	$76
	.byte	$77
	.byte	$78
	.byte	$76
	.byte	$77
	.byte	$78
	.byte	$76
	.byte	$77
	.byte	$78
	.byte	$76
	.byte	$77
	.byte	$78
	.byte	$76
	.byte	$77
	.byte	$78
	.byte	$76
	.byte	$77
	.byte	$78
	.byte	$76
	.byte	$77
	.byte	$78
	.byte	$76
	.byte	$77
	.byte	$78
	.byte	$76
	.byte	$77
	.byte	$78
	.byte	$76
	.byte	$78
	.byte	$00
	.byte	$00
	.byte	$00
	.byte	$00
	.byte	$00
	.byte	$00
	.byte	$00
	.byte	$00
	.byte	$00
	.byte	$00
	.byte	$00
	.byte	$00
	.byte	$00
	.byte	$00
	.byte	$00
	.byte	$00
	.byte	$00
	.byte	$00
	.byte	$00
	.byte	$00
	.byte	$00
	.byte	$00
	.byte	$00
	.byte	$00
	.byte	$00
	.byte	$00
	.byte	$00
	.byte	$00
	.byte	$00
	.byte	$00
	.byte	$00
	.byte	$00
	.byte	$00
	.byte	$00
	.byte	$00
	.byte	$00
	.byte	$00
	.byte	$00
	.byte	$00
	.byte	$00
	.byte	$00
	.byte	$00
	.byte	$00
	.byte	$00
	.byte	$00
	.byte	$00
	.byte	$00
	.byte	$00
	.byte	$00
	.byte	$00
	.byte	$00
	.byte	$00
	.byte	$00
	.byte	$00
	.byte	$00
	.byte	$00
	.byte	$00
	.byte	$00
	.byte	$00
	.byte	$00
	.byte	$00
	.byte	$00
	.byte	$00
	.byte	$00
	.byte	$00
	.byte	$00
	.byte	$00
	.byte	$00
	.byte	$00
	.byte	$00
	.byte	$00
	.byte	$00
	.byte	$00
	.byte	$00
	.byte	$00
	.byte	$00
	.byte	$00
	.byte	$00
	.byte	$00
	.byte	$00
	.byte	$00
	.byte	$00
	.byte	$00
	.byte	$00
	.byte	$00
	.byte	$00
	.byte	$00
	.byte	$00
	.byte	$A0
	.byte	$A0
	.byte	$A0
	.byte	$A0
	.byte	$A0
	.byte	$A0
	.byte	$A0
	.byte	$A0
	.byte	$A6
	.byte	$E5
	.byte	$AF
	.byte	$FA
	.byte	$FA
	.byte	$BA
	.byte	$BC
	.byte	$EA
	.byte	$FF
	.byte	$FF
	.byte	$FF
	.byte	$FF
	.byte	$FF
	.byte	$FF
	.byte	$FF
	.byte	$FF
	.byte	$AF
	.byte	$AF
	.byte	$AF
	.byte	$AF
	.byte	$AF
	.byte	$AF
	.byte	$AF
	.byte	$AF
	.byte	$0F
	.byte	$0F
	.byte	$0F
	.byte	$0F
	.byte	$0F
	.byte	$0F
	.byte	$0F
	.byte	$0A
_title:
	.byte	$00
	.byte	$00
	.byte	$00
	.byte	$00
	.byte	$00
	.byte	$00
	.byte	$00
	.byte	$00
	.byte	$00
	.byte	$00
	.byte	$00
	.byte	$00
	.byte	$00
	.byte	$00
	.byte	$00
	.byte	$00
	.byte	$00
	.byte	$00
	.byte	$00
	.byte	$00
	.byte	$00
	.byte	$00
	.byte	$00
	.byte	$00
	.byte	$00
	.byte	$00
	.byte	$00
	.byte	$00
	.byte	$00
	.byte	$00
	.byte	$00
	.byte	$00
	.byte	$00
	.byte	$00
	.byte	$00
	.byte	$00
	.byte	$00
	.byte	$00
	.byte	$00
	.byte	$00
	.byte	$00
	.byte	$00
	.byte	$00
	.byte	$00
	.byte	$00
	.byte	$00
	.byte	$00
	.byte	$00
	.byte	$00
	.byte	$00
	.byte	$00
	.byte	$00
	.byte	$00
	.byte	$00
	.byte	$00
	.byte	$00
	.byte	$00
	.byte	$00
	.byte	$00
	.byte	$00
	.byte	$00
	.byte	$00
	.byte	$00
	.byte	$00
	.byte	$00
	.byte	$00
	.byte	$00
	.byte	$00
	.byte	$00
	.byte	$00
	.byte	$00
	.byte	$00
	.byte	$00
	.byte	$00
	.byte	$00
	.byte	$00
	.byte	$00
	.byte	$00
	.byte	$00
	.byte	$00
	.byte	$00
	.byte	$00
	.byte	$00
	.byte	$00
	.byte	$00
	.byte	$00
	.byte	$00
	.byte	$00
	.byte	$00
	.byte	$00
	.byte	$00
	.byte	$00
	.byte	$00
	.byte	$00
	.byte	$00
	.byte	$00
	.byte	$00
	.byte	$00
	.byte	$00
	.byte	$00
	.byte	$00
	.byte	$00
	.byte	$00
	.byte	$00
	.byte	$00
	.byte	$00
	.byte	$00
	.byte	$00
	.byte	$00
	.byte	$00
	.byte	$00
	.byte	$4D
	.byte	$5B
	.byte	$41
	.byte	$5B
	.byte	$52
	.byte	$5B
	.byte	$41
	.byte	$5B
	.byte	$54
	.byte	$5B
	.byte	$48
	.byte	$5B
	.byte	$4F
	.byte	$5B
	.byte	$4E
	.byte	$00
	.byte	$00
	.byte	$00
	.byte	$00
	.byte	$00
	.byte	$00
	.byte	$00
	.byte	$00
	.byte	$00
	.byte	$00
	.byte	$00
	.byte	$00
	.byte	$00
	.byte	$00
	.byte	$00
	.byte	$00
	.byte	$00
	.byte	$3F
	.byte	$3F
	.byte	$3F
	.byte	$3F
	.byte	$3F
	.byte	$3F
	.byte	$3F
	.byte	$3F
	.byte	$3F
	.byte	$3F
	.byte	$3F
	.byte	$3F
	.byte	$3F
	.byte	$3F
	.byte	$3F
	.byte	$00
	.byte	$00
	.byte	$00
	.byte	$00
	.byte	$9F
	.byte	$2F
	.byte	$8E
	.byte	$00
	.byte	$CF
	.byte	$00
	.byte	$00
	.byte	$BC
	.byte	$00
	.byte	$9F
	.byte	$8E
	.byte	$00
	.byte	$00
	.byte	$BC
	.byte	$00
	.byte	$9F
	.byte	$8E
	.byte	$00
	.byte	$00
	.byte	$BC
	.byte	$00
	.byte	$9F
	.byte	$2F
	.byte	$BF
	.byte	$00
	.byte	$9F
	.byte	$2F
	.byte	$8E
	.byte	$00
	.byte	$00
	.byte	$00
	.byte	$00
	.byte	$FD
	.byte	$CC
	.byte	$FE
	.byte	$00
	.byte	$FD
	.byte	$00
	.byte	$00
	.byte	$FD
	.byte	$00
	.byte	$FF
	.byte	$01
	.byte	$6F
	.byte	$00
	.byte	$FD
	.byte	$00
	.byte	$FF
	.byte	$01
	.byte	$6F
	.byte	$00
	.byte	$FD
	.byte	$00
	.byte	$FD
	.byte	$00
	.byte	$00
	.byte	$00
	.byte	$FD
	.byte	$CC
	.byte	$FE
	.byte	$00
	.byte	$00
	.byte	$00
	.byte	$00
	.byte	$FD
	.byte	$00
	.byte	$AF
	.byte	$00
	.byte	$FD
	.byte	$00
	.byte	$00
	.byte	$FD
	.byte	$00
	.byte	$FD
	.byte	$A6
	.byte	$A7
	.byte	$00
	.byte	$FD
	.byte	$00
	.byte	$FD
	.byte	$A6
	.byte	$A7
	.byte	$00
	.byte	$FD
	.byte	$00
	.byte	$FD
	.byte	$00
	.byte	$00
	.byte	$00
	.byte	$FD
	.byte	$00
	.byte	$AF
	.byte	$00
	.byte	$00
	.byte	$00
	.byte	$00
	.byte	$FF
	.byte	$2F
	.byte	$BF
	.byte	$00
	.byte	$FD
	.byte	$00
	.byte	$00
	.byte	$FD
	.byte	$00
	.byte	$FD
	.byte	$A8
	.byte	$AE
	.byte	$C3
	.byte	$FD
	.byte	$00
	.byte	$FD
	.byte	$A8
	.byte	$AE
	.byte	$C3
	.byte	$FD
	.byte	$00
	.byte	$FF
	.byte	$2F
	.byte	$AA
	.byte	$00
	.byte	$FF
	.byte	$2F
	.byte	$BF
	.byte	$00
	.byte	$00
	.byte	$00
	.byte	$00
	.byte	$FD
	.byte	$CC
	.byte	$FE
	.byte	$00
	.byte	$FD
	.byte	$00
	.byte	$00
	.byte	$FD
	.byte	$00
	.byte	$FD
	.byte	$C4
	.byte	$C5
	.byte	$C9
	.byte	$FD
	.byte	$00
	.byte	$FD
	.byte	$C4
	.byte	$C5
	.byte	$C9
	.byte	$FD
	.byte	$00
	.byte	$FD
	.byte	$00
	.byte	$00
	.byte	$00
	.byte	$FD
	.byte	$CC
	.byte	$FE
	.byte	$00
	.byte	$00
	.byte	$00
	.byte	$00
	.byte	$FD
	.byte	$00
	.byte	$FD
	.byte	$00
	.byte	$FD
	.byte	$00
	.byte	$00
	.byte	$FD
	.byte	$00
	.byte	$FD
	.byte	$00
	.byte	$CA
	.byte	$CB
	.byte	$FD
	.byte	$00
	.byte	$FD
	.byte	$00
	.byte	$CA
	.byte	$CB
	.byte	$FD
	.byte	$00
	.byte	$FD
	.byte	$00
	.byte	$00
	.byte	$00
	.byte	$FD
	.byte	$00
	.byte	$FD
	.byte	$00
	.byte	$00
	.byte	$00
	.byte	$00
	.byte	$FD
	.byte	$00
	.byte	$FD
	.byte	$00
	.byte	$FF
	.byte	$6F
	.byte	$00
	.byte	$FD
	.byte	$00
	.byte	$FD
	.byte	$00
	.byte	$CC
	.byte	$01
	.byte	$FE
	.byte	$00
	.byte	$FD
	.byte	$00
	.byte	$CC
	.byte	$01
	.byte	$FE
	.byte	$00
	.byte	$FD
	.byte	$00
	.byte	$00
	.byte	$00
	.byte	$FD
	.byte	$00
	.byte	$FD
	.byte	$00
	.byte	$00
	.byte	$00
	.byte	$00
	.byte	$AC
	.byte	$00
	.byte	$AB
	.byte	$00
	.byte	$8F
	.byte	$01
	.byte	$01
	.byte	$AF
	.byte	$00
	.byte	$AC
	.byte	$00
	.byte	$00
	.byte	$9E
	.byte	$AF
	.byte	$00
	.byte	$AC
	.byte	$00
	.byte	$00
	.byte	$9E
	.byte	$AF
	.byte	$00
	.byte	$8F
	.byte	$2F
	.byte	$AF
	.byte	$00
	.byte	$AC
	.byte	$00
	.byte	$AB
	.byte	$00
	.byte	$00
	.byte	$00
	.byte	$00
	.byte	$00
	.byte	$00
	.byte	$00
	.byte	$00
	.byte	$00
	.byte	$00
	.byte	$00
	.byte	$00
	.byte	$00
	.byte	$00
	.byte	$00
	.byte	$00
	.byte	$00
	.byte	$00
	.byte	$00
	.byte	$00
	.byte	$00
	.byte	$00
	.byte	$00
	.byte	$00
	.byte	$00
	.byte	$00
	.byte	$00
	.byte	$00
	.byte	$00
	.byte	$00
	.byte	$00
	.byte	$00
	.byte	$00
	.byte	$00
	.byte	$69
	.byte	$6A
	.byte	$6B
	.byte	$67
	.byte	$68
	.byte	$69
	.byte	$6A
	.byte	$6B
	.byte	$69
	.byte	$67
	.byte	$68
	.byte	$66
	.byte	$6A
	.byte	$6B
	.byte	$69
	.byte	$6A
	.byte	$6B
	.byte	$6A
	.byte	$6A
	.byte	$6A
	.byte	$68
	.byte	$69
	.byte	$6A
	.byte	$6B
	.byte	$6A
	.byte	$6B
	.byte	$69
	.byte	$6A
	.byte	$6B
	.byte	$69
	.byte	$6A
	.byte	$6B
	.byte	$02
	.byte	$02
	.byte	$02
	.byte	$02
	.byte	$02
	.byte	$02
	.byte	$02
	.byte	$65
	.byte	$02
	.byte	$02
	.byte	$02
	.byte	$02
	.byte	$65
	.byte	$02
	.byte	$02
	.byte	$63
	.byte	$65
	.byte	$02
	.byte	$02
	.byte	$02
	.byte	$02
	.byte	$64
	.byte	$02
	.byte	$63
	.byte	$02
	.byte	$02
	.byte	$63
	.byte	$02
	.byte	$02
	.byte	$63
	.byte	$02
	.byte	$02
	.byte	$02
	.byte	$63
	.byte	$65
	.byte	$02
	.byte	$02
	.byte	$02
	.byte	$64
	.byte	$02
	.byte	$02
	.byte	$02
	.byte	$02
	.byte	$02
	.byte	$02
	.byte	$02
	.byte	$02
	.byte	$02
	.byte	$02
	.byte	$02
	.byte	$02
	.byte	$02
	.byte	$02
	.byte	$02
	.byte	$02
	.byte	$64
	.byte	$02
	.byte	$02
	.byte	$02
	.byte	$02
	.byte	$02
	.byte	$02
	.byte	$02
	.byte	$02
	.byte	$02
	.byte	$02
	.byte	$02
	.byte	$02
	.byte	$02
	.byte	$02
	.byte	$02
	.byte	$63
	.byte	$02
	.byte	$02
	.byte	$63
	.byte	$02
	.byte	$02
	.byte	$63
	.byte	$65
	.byte	$02
	.byte	$02
	.byte	$02
	.byte	$02
	.byte	$02
	.byte	$02
	.byte	$02
	.byte	$02
	.byte	$02
	.byte	$02
	.byte	$02
	.byte	$02
	.byte	$02
	.byte	$63
	.byte	$02
	.byte	$02
	.byte	$02
	.byte	$02
	.byte	$02
	.byte	$02
	.byte	$02
	.byte	$64
	.byte	$02
	.byte	$02
	.byte	$63
	.byte	$63
	.byte	$64
	.byte	$02
	.byte	$65
	.byte	$02
	.byte	$02
	.byte	$02
	.byte	$02
	.byte	$64
	.byte	$97
	.byte	$02
	.byte	$02
	.byte	$02
	.byte	$64
	.byte	$02
	.byte	$02
	.byte	$02
	.byte	$02
	.byte	$02
	.byte	$63
	.byte	$02
	.byte	$02
	.byte	$02
	.byte	$02
	.byte	$02
	.byte	$02
	.byte	$63
	.byte	$02
	.byte	$02
	.byte	$65
	.byte	$65
	.byte	$02
	.byte	$02
	.byte	$02
	.byte	$02
	.byte	$02
	.byte	$63
	.byte	$02
	.byte	$02
	.byte	$65
	.byte	$02
	.byte	$02
	.byte	$02
	.byte	$02
	.byte	$02
	.byte	$02
	.byte	$02
	.byte	$65
	.byte	$02
	.byte	$02
	.byte	$65
	.byte	$02
	.byte	$02
	.byte	$02
	.byte	$65
	.byte	$63
	.byte	$60
	.byte	$60
	.byte	$60
	.byte	$60
	.byte	$60
	.byte	$60
	.byte	$60
	.byte	$60
	.byte	$60
	.byte	$60
	.byte	$60
	.byte	$60
	.byte	$60
	.byte	$60
	.byte	$60
	.byte	$60
	.byte	$60
	.byte	$60
	.byte	$60
	.byte	$60
	.byte	$60
	.byte	$60
	.byte	$60
	.byte	$60
	.byte	$60
	.byte	$60
	.byte	$60
	.byte	$60
	.byte	$60
	.byte	$60
	.byte	$60
	.byte	$60
	.byte	$01
	.byte	$73
	.byte	$01
	.byte	$01
	.byte	$73
	.byte	$85
	.byte	$73
	.byte	$01
	.byte	$73
	.byte	$01
	.byte	$73
	.byte	$01
	.byte	$73
	.byte	$85
	.byte	$01
	.byte	$73
	.byte	$73
	.byte	$01
	.byte	$73
	.byte	$01
	.byte	$84
	.byte	$85
	.byte	$01
	.byte	$73
	.byte	$01
	.byte	$01
	.byte	$73
	.byte	$85
	.byte	$01
	.byte	$01
	.byte	$73
	.byte	$73
	.byte	$01
	.byte	$85
	.byte	$73
	.byte	$73
	.byte	$01
	.byte	$84
	.byte	$85
	.byte	$01
	.byte	$01
	.byte	$73
	.byte	$73
	.byte	$01
	.byte	$01
	.byte	$84
	.byte	$85
	.byte	$01
	.byte	$01
	.byte	$73
	.byte	$01
	.byte	$01
	.byte	$01
	.byte	$75
	.byte	$85
	.byte	$01
	.byte	$75
	.byte	$01
	.byte	$85
	.byte	$73
	.byte	$73
	.byte	$73
	.byte	$01
	.byte	$01
	.byte	$01
	.byte	$01
	.byte	$73
	.byte	$01
	.byte	$01
	.byte	$01
	.byte	$84
	.byte	$85
	.byte	$73
	.byte	$01
	.byte	$73
	.byte	$01
	.byte	$73
	.byte	$01
	.byte	$75
	.byte	$85
	.byte	$01
	.byte	$01
	.byte	$73
	.byte	$01
	.byte	$01
	.byte	$01
	.byte	$84
	.byte	$85
	.byte	$01
	.byte	$73
	.byte	$85
	.byte	$85
	.byte	$85
	.byte	$73
	.byte	$73
	.byte	$85
	.byte	$74
	.byte	$01
	.byte	$01
	.byte	$73
	.byte	$01
	.byte	$73
	.byte	$01
	.byte	$84
	.byte	$85
	.byte	$01
	.byte	$01
	.byte	$73
	.byte	$01
	.byte	$01
	.byte	$84
	.byte	$85
	.byte	$73
	.byte	$01
	.byte	$73
	.byte	$73
	.byte	$01
	.byte	$73
	.byte	$84
	.byte	$85
	.byte	$01
	.byte	$01
	.byte	$73
	.byte	$85
	.byte	$01
	.byte	$01
	.byte	$85
	.byte	$85
	.byte	$61
	.byte	$61
	.byte	$61
	.byte	$62
	.byte	$61
	.byte	$61
	.byte	$61
	.byte	$61
	.byte	$72
	.byte	$61
	.byte	$61
	.byte	$61
	.byte	$61
	.byte	$61
	.byte	$61
	.byte	$72
	.byte	$61
	.byte	$61
	.byte	$61
	.byte	$62
	.byte	$61
	.byte	$61
	.byte	$61
	.byte	$61
	.byte	$61
	.byte	$61
	.byte	$61
	.byte	$62
	.byte	$61
	.byte	$72
	.byte	$61
	.byte	$72
	.byte	$02
	.byte	$64
	.byte	$02
	.byte	$02
	.byte	$02
	.byte	$02
	.byte	$02
	.byte	$02
	.byte	$02
	.byte	$02
	.byte	$02
	.byte	$02
	.byte	$02
	.byte	$02
	.byte	$02
	.byte	$02
	.byte	$02
	.byte	$02
	.byte	$02
	.byte	$02
	.byte	$02
	.byte	$02
	.byte	$02
	.byte	$02
	.byte	$02
	.byte	$02
	.byte	$02
	.byte	$02
	.byte	$02
	.byte	$02
	.byte	$02
	.byte	$63
	.byte	$76
	.byte	$77
	.byte	$77
	.byte	$78
	.byte	$79
	.byte	$F2
	.byte	$E7
	.byte	$DC
	.byte	$DC
	.byte	$E7
	.byte	$E7
	.byte	$DC
	.byte	$E7
	.byte	$DC
	.byte	$DC
	.byte	$E7
	.byte	$DC
	.byte	$E7
	.byte	$DC
	.byte	$E7
	.byte	$DC
	.byte	$E7
	.byte	$DC
	.byte	$DC
	.byte	$E7
	.byte	$DC
	.byte	$E1
	.byte	$5C
	.byte	$77
	.byte	$78
	.byte	$76
	.byte	$78
	.byte	$00
	.byte	$00
	.byte	$00
	.byte	$00
	.byte	$00
	.byte	$00
	.byte	$00
	.byte	$3B
	.byte	$32
	.byte	$30
	.byte	$32
	.byte	$36
	.byte	$00
	.byte	$41
	.byte	$4C
	.byte	$41
	.byte	$4E
	.byte	$00
	.byte	$3C
	.byte	$00
	.byte	$42
	.byte	$52
	.byte	$49
	.byte	$41
	.byte	$4E
	.byte	$00
	.byte	$00
	.byte	$00
	.byte	$00
	.byte	$00
	.byte	$00
	.byte	$00
	.byte	$00
	.byte	$00
	.byte	$00
	.byte	$00
	.byte	$00
	.byte	$00
	.byte	$00
	.byte	$00
	.byte	$00
	.byte	$00
	.byte	$00
	.byte	$00
	.byte	$00
	.byte	$00
	.byte	$00
	.byte	$00
	.byte	$00
	.byte	$00
	.byte	$00
	.byte	$00
	.byte	$00
	.byte	$00
	.byte	$00
	.byte	$00
	.byte	$00
	.byte	$00
	.byte	$00
	.byte	$00
	.byte	$00
	.byte	$00
	.byte	$00
	.byte	$00
	.byte	$00
	.byte	$50
	.byte	$50
	.byte	$50
	.byte	$50
	.byte	$50
	.byte	$50
	.byte	$50
	.byte	$45
	.byte	$55
	.byte	$55
	.byte	$55
	.byte	$55
	.byte	$55
	.byte	$55
	.byte	$55
	.byte	$44
	.byte	$55
	.byte	$55
	.byte	$55
	.byte	$55
	.byte	$55
	.byte	$55
	.byte	$55
	.byte	$A5
	.byte	$A5
	.byte	$A5
	.byte	$A5
	.byte	$A5
	.byte	$A5
	.byte	$A5
	.byte	$A5
	.byte	$AA
	.byte	$AA
	.byte	$AA
	.byte	$AA
	.byte	$A8
	.byte	$AB
	.byte	$AF
	.byte	$AA
	.byte	$FF
	.byte	$FF
	.byte	$FF
	.byte	$FF
	.byte	$FF
	.byte	$FF
	.byte	$FF
	.byte	$FF
	.byte	$AF
	.byte	$AF
	.byte	$AF
	.byte	$AF
	.byte	$AF
	.byte	$AF
	.byte	$AF
	.byte	$AF
	.byte	$0F
	.byte	$03
	.byte	$00
	.byte	$00
	.byte	$00
	.byte	$00
	.byte	$0C
	.byte	$0F
_marathon_man_run1_data:
	.byte	$06
	.byte	$19
	.byte	$08
	.byte	$00
	.byte	$0C
	.byte	$18
	.byte	$08
	.byte	$00
	.byte	$FF
	.byte	$02
	.byte	$04
	.byte	$00
	.byte	$07
	.byte	$02
	.byte	$05
	.byte	$00
	.byte	$FF
	.byte	$0A
	.byte	$14
	.byte	$00
	.byte	$07
	.byte	$0A
	.byte	$15
	.byte	$00
	.byte	$00
	.byte	$02
	.byte	$06
	.byte	$02
	.byte	$08
	.byte	$02
	.byte	$07
	.byte	$02
	.byte	$00
	.byte	$0A
	.byte	$16
	.byte	$02
	.byte	$08
	.byte	$0A
	.byte	$17
	.byte	$02
	.byte	$08
	.byte	$10
	.byte	$2B
	.byte	$02
	.byte	$00
	.byte	$10
	.byte	$2A
	.byte	$02
	.byte	$F8
	.byte	$10
	.byte	$29
	.byte	$02
	.byte	$08
	.byte	$18
	.byte	$3B
	.byte	$02
	.byte	$00
	.byte	$18
	.byte	$3A
	.byte	$02
	.byte	$F8
	.byte	$18
	.byte	$39
	.byte	$02
	.byte	$08
	.byte	$20
	.byte	$4B
	.byte	$02
	.byte	$00
	.byte	$20
	.byte	$4A
	.byte	$02
	.byte	$F8
	.byte	$20
	.byte	$49
	.byte	$02
	.byte	$08
	.byte	$28
	.byte	$5B
	.byte	$02
	.byte	$00
	.byte	$28
	.byte	$5A
	.byte	$02
	.byte	$F8
	.byte	$28
	.byte	$59
	.byte	$02
	.byte	$F0
	.byte	$28
	.byte	$58
	.byte	$02
	.byte	$F0
	.byte	$30
	.byte	$68
	.byte	$02
	.byte	$F8
	.byte	$30
	.byte	$69
	.byte	$02
	.byte	$00
	.byte	$30
	.byte	$6A
	.byte	$02
	.byte	$08
	.byte	$30
	.byte	$6B
	.byte	$02
	.byte	$08
	.byte	$38
	.byte	$7B
	.byte	$02
	.byte	$10
	.byte	$38
	.byte	$7C
	.byte	$02
	.byte	$80
_marathon_man_run2_data:
	.byte	$08
	.byte	$1A
	.byte	$08
	.byte	$00
	.byte	$FF
	.byte	$03
	.byte	$04
	.byte	$00
	.byte	$07
	.byte	$03
	.byte	$05
	.byte	$00
	.byte	$FF
	.byte	$0B
	.byte	$14
	.byte	$00
	.byte	$07
	.byte	$0B
	.byte	$15
	.byte	$00
	.byte	$00
	.byte	$03
	.byte	$06
	.byte	$02
	.byte	$08
	.byte	$03
	.byte	$07
	.byte	$02
	.byte	$00
	.byte	$0B
	.byte	$16
	.byte	$02
	.byte	$08
	.byte	$0B
	.byte	$17
	.byte	$02
	.byte	$08
	.byte	$10
	.byte	$A2
	.byte	$02
	.byte	$00
	.byte	$10
	.byte	$A1
	.byte	$02
	.byte	$08
	.byte	$18
	.byte	$B2
	.byte	$02
	.byte	$F8
	.byte	$18
	.byte	$B0
	.byte	$02
	.byte	$00
	.byte	$18
	.byte	$B1
	.byte	$02
	.byte	$08
	.byte	$20
	.byte	$C2
	.byte	$02
	.byte	$00
	.byte	$20
	.byte	$C1
	.byte	$02
	.byte	$00
	.byte	$28
	.byte	$D1
	.byte	$02
	.byte	$08
	.byte	$28
	.byte	$D2
	.byte	$02
	.byte	$08
	.byte	$30
	.byte	$E2
	.byte	$02
	.byte	$08
	.byte	$38
	.byte	$F2
	.byte	$02
	.byte	$00
	.byte	$38
	.byte	$F1
	.byte	$02
	.byte	$00
	.byte	$30
	.byte	$E1
	.byte	$02
	.byte	$F8
	.byte	$30
	.byte	$E0
	.byte	$02
	.byte	$80
_marathon_man_run3_data:
	.byte	$0B
	.byte	$16
	.byte	$08
	.byte	$00
	.byte	$FF
	.byte	$02
	.byte	$04
	.byte	$00
	.byte	$07
	.byte	$02
	.byte	$05
	.byte	$00
	.byte	$FF
	.byte	$0A
	.byte	$14
	.byte	$00
	.byte	$07
	.byte	$0A
	.byte	$15
	.byte	$00
	.byte	$00
	.byte	$02
	.byte	$06
	.byte	$02
	.byte	$08
	.byte	$02
	.byte	$07
	.byte	$02
	.byte	$00
	.byte	$0A
	.byte	$16
	.byte	$02
	.byte	$08
	.byte	$0A
	.byte	$17
	.byte	$02
	.byte	$08
	.byte	$10
	.byte	$A6
	.byte	$02
	.byte	$00
	.byte	$10
	.byte	$A5
	.byte	$02
	.byte	$08
	.byte	$18
	.byte	$B6
	.byte	$02
	.byte	$00
	.byte	$18
	.byte	$B5
	.byte	$02
	.byte	$08
	.byte	$20
	.byte	$C6
	.byte	$02
	.byte	$00
	.byte	$20
	.byte	$C5
	.byte	$02
	.byte	$08
	.byte	$28
	.byte	$D6
	.byte	$02
	.byte	$08
	.byte	$30
	.byte	$E6
	.byte	$02
	.byte	$10
	.byte	$30
	.byte	$E7
	.byte	$02
	.byte	$08
	.byte	$38
	.byte	$F6
	.byte	$02
	.byte	$00
	.byte	$38
	.byte	$F5
	.byte	$02
	.byte	$F8
	.byte	$38
	.byte	$F4
	.byte	$02
	.byte	$F0
	.byte	$38
	.byte	$F3
	.byte	$02
	.byte	$F8
	.byte	$30
	.byte	$E4
	.byte	$02
	.byte	$00
	.byte	$30
	.byte	$E5
	.byte	$02
	.byte	$00
	.byte	$28
	.byte	$D5
	.byte	$02
	.byte	$F8
	.byte	$28
	.byte	$D4
	.byte	$02
	.byte	$80
_marathon_man_run4_data:
	.byte	$0C
	.byte	$15
	.byte	$08
	.byte	$00
	.byte	$FF
	.byte	$02
	.byte	$04
	.byte	$00
	.byte	$07
	.byte	$02
	.byte	$05
	.byte	$00
	.byte	$FF
	.byte	$0A
	.byte	$14
	.byte	$00
	.byte	$07
	.byte	$0A
	.byte	$15
	.byte	$00
	.byte	$00
	.byte	$02
	.byte	$06
	.byte	$02
	.byte	$08
	.byte	$02
	.byte	$07
	.byte	$02
	.byte	$00
	.byte	$0A
	.byte	$16
	.byte	$02
	.byte	$08
	.byte	$0A
	.byte	$17
	.byte	$02
	.byte	$08
	.byte	$10
	.byte	$AB
	.byte	$02
	.byte	$00
	.byte	$10
	.byte	$AA
	.byte	$02
	.byte	$08
	.byte	$18
	.byte	$BB
	.byte	$02
	.byte	$00
	.byte	$18
	.byte	$BA
	.byte	$02
	.byte	$F8
	.byte	$18
	.byte	$B9
	.byte	$02
	.byte	$08
	.byte	$20
	.byte	$CB
	.byte	$02
	.byte	$00
	.byte	$20
	.byte	$CA
	.byte	$02
	.byte	$F8
	.byte	$20
	.byte	$C9
	.byte	$02
	.byte	$08
	.byte	$28
	.byte	$DB
	.byte	$02
	.byte	$00
	.byte	$28
	.byte	$DA
	.byte	$02
	.byte	$F8
	.byte	$28
	.byte	$D9
	.byte	$02
	.byte	$F0
	.byte	$28
	.byte	$D8
	.byte	$02
	.byte	$F0
	.byte	$30
	.byte	$E8
	.byte	$02
	.byte	$F8
	.byte	$30
	.byte	$E9
	.byte	$02
	.byte	$00
	.byte	$30
	.byte	$EA
	.byte	$02
	.byte	$08
	.byte	$30
	.byte	$EB
	.byte	$02
	.byte	$10
	.byte	$30
	.byte	$EC
	.byte	$02
	.byte	$10
	.byte	$28
	.byte	$DC
	.byte	$02
	.byte	$10
	.byte	$38
	.byte	$FC
	.byte	$02
	.byte	$18
	.byte	$38
	.byte	$FD
	.byte	$02
	.byte	$80
_marathon_man_run5_data:
	.byte	$0B
	.byte	$16
	.byte	$08
	.byte	$00
	.byte	$FF
	.byte	$03
	.byte	$04
	.byte	$00
	.byte	$07
	.byte	$03
	.byte	$05
	.byte	$00
	.byte	$FF
	.byte	$0B
	.byte	$14
	.byte	$00
	.byte	$07
	.byte	$0B
	.byte	$15
	.byte	$00
	.byte	$00
	.byte	$03
	.byte	$06
	.byte	$02
	.byte	$08
	.byte	$03
	.byte	$07
	.byte	$02
	.byte	$00
	.byte	$0B
	.byte	$16
	.byte	$02
	.byte	$08
	.byte	$0B
	.byte	$17
	.byte	$02
	.byte	$08
	.byte	$10
	.byte	$22
	.byte	$02
	.byte	$00
	.byte	$10
	.byte	$21
	.byte	$02
	.byte	$08
	.byte	$18
	.byte	$32
	.byte	$02
	.byte	$00
	.byte	$18
	.byte	$31
	.byte	$02
	.byte	$08
	.byte	$20
	.byte	$42
	.byte	$02
	.byte	$00
	.byte	$20
	.byte	$41
	.byte	$02
	.byte	$00
	.byte	$28
	.byte	$51
	.byte	$02
	.byte	$08
	.byte	$28
	.byte	$52
	.byte	$02
	.byte	$08
	.byte	$30
	.byte	$62
	.byte	$02
	.byte	$00
	.byte	$30
	.byte	$61
	.byte	$02
	.byte	$F8
	.byte	$30
	.byte	$60
	.byte	$02
	.byte	$08
	.byte	$38
	.byte	$72
	.byte	$02
	.byte	$00
	.byte	$38
	.byte	$71
	.byte	$02
	.byte	$80
_marathon_man_run6_data:
	.byte	$08
	.byte	$18
	.byte	$08
	.byte	$00
	.byte	$FF
	.byte	$02
	.byte	$04
	.byte	$00
	.byte	$07
	.byte	$02
	.byte	$05
	.byte	$00
	.byte	$FF
	.byte	$0A
	.byte	$14
	.byte	$00
	.byte	$07
	.byte	$0A
	.byte	$15
	.byte	$00
	.byte	$00
	.byte	$02
	.byte	$06
	.byte	$02
	.byte	$08
	.byte	$02
	.byte	$07
	.byte	$02
	.byte	$00
	.byte	$0A
	.byte	$16
	.byte	$02
	.byte	$08
	.byte	$0A
	.byte	$17
	.byte	$02
	.byte	$08
	.byte	$10
	.byte	$26
	.byte	$02
	.byte	$00
	.byte	$10
	.byte	$25
	.byte	$02
	.byte	$F8
	.byte	$10
	.byte	$24
	.byte	$02
	.byte	$F8
	.byte	$18
	.byte	$34
	.byte	$02
	.byte	$00
	.byte	$18
	.byte	$35
	.byte	$02
	.byte	$08
	.byte	$18
	.byte	$36
	.byte	$02
	.byte	$08
	.byte	$20
	.byte	$46
	.byte	$02
	.byte	$00
	.byte	$20
	.byte	$45
	.byte	$02
	.byte	$08
	.byte	$28
	.byte	$56
	.byte	$02
	.byte	$08
	.byte	$30
	.byte	$66
	.byte	$02
	.byte	$08
	.byte	$38
	.byte	$76
	.byte	$02
	.byte	$10
	.byte	$30
	.byte	$67
	.byte	$02
	.byte	$00
	.byte	$38
	.byte	$75
	.byte	$02
	.byte	$00
	.byte	$30
	.byte	$65
	.byte	$02
	.byte	$00
	.byte	$28
	.byte	$55
	.byte	$02
	.byte	$F8
	.byte	$28
	.byte	$54
	.byte	$02
	.byte	$F8
	.byte	$30
	.byte	$64
	.byte	$02
	.byte	$F8
	.byte	$38
	.byte	$74
	.byte	$02
	.byte	$80
_marathon_man_walk1_data:
	.byte	$0B
	.byte	$16
	.byte	$08
	.byte	$00
	.byte	$FF
	.byte	$02
	.byte	$04
	.byte	$00
	.byte	$07
	.byte	$02
	.byte	$05
	.byte	$00
	.byte	$FF
	.byte	$0A
	.byte	$14
	.byte	$00
	.byte	$07
	.byte	$0A
	.byte	$15
	.byte	$00
	.byte	$00
	.byte	$02
	.byte	$06
	.byte	$02
	.byte	$08
	.byte	$02
	.byte	$07
	.byte	$02
	.byte	$00
	.byte	$0A
	.byte	$16
	.byte	$02
	.byte	$08
	.byte	$0A
	.byte	$17
	.byte	$02
	.byte	$08
	.byte	$10
	.byte	$0E
	.byte	$02
	.byte	$00
	.byte	$10
	.byte	$0D
	.byte	$02
	.byte	$08
	.byte	$18
	.byte	$1E
	.byte	$02
	.byte	$00
	.byte	$18
	.byte	$1D
	.byte	$02
	.byte	$08
	.byte	$20
	.byte	$2E
	.byte	$02
	.byte	$00
	.byte	$20
	.byte	$2D
	.byte	$02
	.byte	$08
	.byte	$28
	.byte	$3E
	.byte	$02
	.byte	$00
	.byte	$28
	.byte	$3D
	.byte	$02
	.byte	$F8
	.byte	$28
	.byte	$3C
	.byte	$02
	.byte	$00
	.byte	$30
	.byte	$4D
	.byte	$02
	.byte	$F8
	.byte	$30
	.byte	$4C
	.byte	$02
	.byte	$F8
	.byte	$38
	.byte	$5C
	.byte	$02
	.byte	$00
	.byte	$38
	.byte	$5D
	.byte	$02
	.byte	$08
	.byte	$38
	.byte	$5E
	.byte	$02
	.byte	$10
	.byte	$38
	.byte	$5F
	.byte	$02
	.byte	$08
	.byte	$30
	.byte	$4E
	.byte	$02
	.byte	$80
_marathon_man_walk2_data:
	.byte	$08
	.byte	$19
	.byte	$08
	.byte	$00
	.byte	$FF
	.byte	$03
	.byte	$04
	.byte	$00
	.byte	$07
	.byte	$03
	.byte	$05
	.byte	$00
	.byte	$FF
	.byte	$0B
	.byte	$14
	.byte	$00
	.byte	$07
	.byte	$0B
	.byte	$15
	.byte	$00
	.byte	$00
	.byte	$03
	.byte	$06
	.byte	$02
	.byte	$08
	.byte	$03
	.byte	$07
	.byte	$02
	.byte	$00
	.byte	$0B
	.byte	$16
	.byte	$02
	.byte	$08
	.byte	$0B
	.byte	$17
	.byte	$02
	.byte	$07
	.byte	$10
	.byte	$6F
	.byte	$02
	.byte	$FF
	.byte	$10
	.byte	$6E
	.byte	$02
	.byte	$07
	.byte	$18
	.byte	$7F
	.byte	$02
	.byte	$FF
	.byte	$18
	.byte	$7E
	.byte	$02
	.byte	$07
	.byte	$20
	.byte	$8F
	.byte	$02
	.byte	$FF
	.byte	$20
	.byte	$8E
	.byte	$02
	.byte	$07
	.byte	$28
	.byte	$9F
	.byte	$02
	.byte	$FF
	.byte	$28
	.byte	$9E
	.byte	$02
	.byte	$07
	.byte	$30
	.byte	$AF
	.byte	$02
	.byte	$07
	.byte	$38
	.byte	$BF
	.byte	$02
	.byte	$FF
	.byte	$38
	.byte	$BE
	.byte	$02
	.byte	$FF
	.byte	$30
	.byte	$AE
	.byte	$02
	.byte	$F7
	.byte	$30
	.byte	$AD
	.byte	$02
	.byte	$F7
	.byte	$38
	.byte	$BD
	.byte	$02
	.byte	$80
_marathon_man_walk3_data:
	.byte	$06
	.byte	$19
	.byte	$08
	.byte	$00
	.byte	$0C
	.byte	$18
	.byte	$08
	.byte	$00
	.byte	$FF
	.byte	$02
	.byte	$04
	.byte	$00
	.byte	$07
	.byte	$02
	.byte	$05
	.byte	$00
	.byte	$FF
	.byte	$0A
	.byte	$14
	.byte	$00
	.byte	$07
	.byte	$0A
	.byte	$15
	.byte	$00
	.byte	$00
	.byte	$02
	.byte	$06
	.byte	$02
	.byte	$08
	.byte	$02
	.byte	$07
	.byte	$02
	.byte	$00
	.byte	$0A
	.byte	$16
	.byte	$02
	.byte	$08
	.byte	$0A
	.byte	$17
	.byte	$02
	.byte	$08
	.byte	$10
	.byte	$CF
	.byte	$02
	.byte	$00
	.byte	$10
	.byte	$CE
	.byte	$02
	.byte	$08
	.byte	$18
	.byte	$DF
	.byte	$02
	.byte	$00
	.byte	$18
	.byte	$DE
	.byte	$02
	.byte	$F8
	.byte	$18
	.byte	$DD
	.byte	$02
	.byte	$08
	.byte	$20
	.byte	$EF
	.byte	$02
	.byte	$00
	.byte	$20
	.byte	$EE
	.byte	$02
	.byte	$08
	.byte	$28
	.byte	$FF
	.byte	$02
	.byte	$00
	.byte	$28
	.byte	$FE
	.byte	$02
	.byte	$08
	.byte	$30
	.byte	$8C
	.byte	$02
	.byte	$08
	.byte	$38
	.byte	$9C
	.byte	$02
	.byte	$10
	.byte	$38
	.byte	$9D
	.byte	$02
	.byte	$00
	.byte	$30
	.byte	$8B
	.byte	$02
	.byte	$F8
	.byte	$30
	.byte	$8A
	.byte	$02
	.byte	$F8
	.byte	$38
	.byte	$9A
	.byte	$02
	.byte	$F8
	.byte	$10
	.byte	$CD
	.byte	$02
	.byte	$80
_marathon_man_walk4_data:
	.byte	$09
	.byte	$1A
	.byte	$08
	.byte	$00
	.byte	$FF
	.byte	$03
	.byte	$04
	.byte	$00
	.byte	$07
	.byte	$03
	.byte	$05
	.byte	$00
	.byte	$FF
	.byte	$0B
	.byte	$14
	.byte	$00
	.byte	$07
	.byte	$0B
	.byte	$15
	.byte	$00
	.byte	$00
	.byte	$03
	.byte	$06
	.byte	$02
	.byte	$08
	.byte	$03
	.byte	$07
	.byte	$02
	.byte	$00
	.byte	$0B
	.byte	$16
	.byte	$02
	.byte	$08
	.byte	$0B
	.byte	$17
	.byte	$02
	.byte	$07
	.byte	$10
	.byte	$88
	.byte	$02
	.byte	$FF
	.byte	$10
	.byte	$87
	.byte	$02
	.byte	$07
	.byte	$18
	.byte	$98
	.byte	$02
	.byte	$FF
	.byte	$18
	.byte	$97
	.byte	$02
	.byte	$07
	.byte	$20
	.byte	$A8
	.byte	$02
	.byte	$FF
	.byte	$20
	.byte	$A7
	.byte	$02
	.byte	$07
	.byte	$28
	.byte	$B8
	.byte	$02
	.byte	$FF
	.byte	$28
	.byte	$B7
	.byte	$02
	.byte	$FF
	.byte	$30
	.byte	$C7
	.byte	$02
	.byte	$07
	.byte	$30
	.byte	$C8
	.byte	$02
	.byte	$07
	.byte	$38
	.byte	$96
	.byte	$02
	.byte	$FF
	.byte	$38
	.byte	$95
	.byte	$02
	.byte	$F7
	.byte	$30
	.byte	$84
	.byte	$02
	.byte	$F7
	.byte	$38
	.byte	$94
	.byte	$02
	.byte	$80
_marathon_man_cursor1_data:
	.byte	$00
	.byte	$00
	.byte	$93
	.byte	$00
	.byte	$00
	.byte	$00
	.byte	$90
	.byte	$02
	.byte	$80
_marathon_man_cursor2_data:
	.byte	$00
	.byte	$00
	.byte	$93
	.byte	$00
	.byte	$00
	.byte	$00
	.byte	$91
	.byte	$02
	.byte	$80
_marathon_man_cursor3_data:
	.byte	$00
	.byte	$00
	.byte	$93
	.byte	$00
	.byte	$00
	.byte	$00
	.byte	$92
	.byte	$02
	.byte	$80
_marathon_man_1_data:
	.byte	$00
	.byte	$00
	.byte	$10
	.byte	$01
	.byte	$80
_marathon_man_2_data:
	.byte	$00
	.byte	$00
	.byte	$11
	.byte	$01
	.byte	$80
_marathon_man_3_data:
	.byte	$00
	.byte	$00
	.byte	$12
	.byte	$01
	.byte	$80
_marathon_man_4_data:
	.byte	$00
	.byte	$00
	.byte	$13
	.byte	$01
	.byte	$80
_marathon_man_5_data:
	.byte	$00
	.byte	$00
	.byte	$23
	.byte	$01
	.byte	$80
_marathon_man_6_data:
	.byte	$00
	.byte	$00
	.byte	$33
	.byte	$01
	.byte	$80
_marathon_man_7_data:
	.byte	$00
	.byte	$00
	.byte	$43
	.byte	$01
	.byte	$80
_marathon_man_8_data:
	.byte	$00
	.byte	$00
	.byte	$53
	.byte	$01
	.byte	$80
_marathon_man_9_data:
	.byte	$00
	.byte	$00
	.byte	$63
	.byte	$01
	.byte	$80
_marathon_man_10_data:
	.byte	$00
	.byte	$00
	.byte	$73
	.byte	$01
	.byte	$80
_marathon_man_11_data:
	.byte	$00
	.byte	$00
	.byte	$83
	.byte	$01
	.byte	$80
_marathon_man_12_data:
	.byte	$00
	.byte	$00
	.byte	$82
	.byte	$01
	.byte	$80
_marathon_man_alan0_data:
	.byte	$F0
	.byte	$20
	.byte	$01
	.byte	$00
	.byte	$80
_marathon_man_alan1_data:
	.byte	$F0
	.byte	$20
	.byte	$01
	.byte	$00
	.byte	$F0
	.byte	$18
	.byte	$02
	.byte	$00
	.byte	$80
_marathon_man_alan2_data:
	.byte	$F0
	.byte	$20
	.byte	$01
	.byte	$00
	.byte	$F0
	.byte	$18
	.byte	$02
	.byte	$00
	.byte	$F0
	.byte	$10
	.byte	$03
	.byte	$00
	.byte	$80
_marathon_man_alan3_data:
	.byte	$F0
	.byte	$20
	.byte	$01
	.byte	$00
	.byte	$F0
	.byte	$18
	.byte	$02
	.byte	$00
	.byte	$F0
	.byte	$10
	.byte	$03
	.byte	$00
	.byte	$F8
	.byte	$10
	.byte	$09
	.byte	$00
	.byte	$80
_marathon_man_alan4_data:
	.byte	$F0
	.byte	$20
	.byte	$01
	.byte	$00
	.byte	$F0
	.byte	$18
	.byte	$02
	.byte	$00
	.byte	$F0
	.byte	$10
	.byte	$03
	.byte	$00
	.byte	$F8
	.byte	$10
	.byte	$09
	.byte	$00
	.byte	$F8
	.byte	$08
	.byte	$0A
	.byte	$00
	.byte	$80
_marathon_man_alan5_data:
	.byte	$F0
	.byte	$20
	.byte	$01
	.byte	$00
	.byte	$F0
	.byte	$18
	.byte	$02
	.byte	$00
	.byte	$F0
	.byte	$10
	.byte	$03
	.byte	$00
	.byte	$F8
	.byte	$10
	.byte	$09
	.byte	$00
	.byte	$F8
	.byte	$08
	.byte	$0A
	.byte	$00
	.byte	$F8
	.byte	$00
	.byte	$0B
	.byte	$00
	.byte	$80
_marathon_man_alan6_data:
	.byte	$F0
	.byte	$20
	.byte	$01
	.byte	$00
	.byte	$F0
	.byte	$18
	.byte	$02
	.byte	$00
	.byte	$F0
	.byte	$10
	.byte	$03
	.byte	$00
	.byte	$F8
	.byte	$10
	.byte	$09
	.byte	$00
	.byte	$F8
	.byte	$08
	.byte	$0A
	.byte	$00
	.byte	$F8
	.byte	$00
	.byte	$0B
	.byte	$00
	.byte	$00
	.byte	$00
	.byte	$0C
	.byte	$00
	.byte	$80
_marathon_man_alan7_data:
	.byte	$F0
	.byte	$20
	.byte	$01
	.byte	$00
	.byte	$F0
	.byte	$18
	.byte	$02
	.byte	$00
	.byte	$F0
	.byte	$10
	.byte	$03
	.byte	$00
	.byte	$F8
	.byte	$10
	.byte	$09
	.byte	$00
	.byte	$F8
	.byte	$08
	.byte	$0A
	.byte	$00
	.byte	$F8
	.byte	$00
	.byte	$0B
	.byte	$00
	.byte	$00
	.byte	$00
	.byte	$0C
	.byte	$00
	.byte	$00
	.byte	$08
	.byte	$0F
	.byte	$00
	.byte	$80
_marathon_man_alan8_data:
	.byte	$F0
	.byte	$20
	.byte	$01
	.byte	$00
	.byte	$F0
	.byte	$18
	.byte	$02
	.byte	$00
	.byte	$F0
	.byte	$10
	.byte	$03
	.byte	$00
	.byte	$F8
	.byte	$10
	.byte	$19
	.byte	$00
	.byte	$F8
	.byte	$08
	.byte	$0A
	.byte	$00
	.byte	$F8
	.byte	$00
	.byte	$0B
	.byte	$00
	.byte	$00
	.byte	$00
	.byte	$0C
	.byte	$00
	.byte	$00
	.byte	$08
	.byte	$0F
	.byte	$00
	.byte	$80
_marathon_man_alan9_data:
	.byte	$F0
	.byte	$20
	.byte	$01
	.byte	$00
	.byte	$F0
	.byte	$18
	.byte	$02
	.byte	$00
	.byte	$F0
	.byte	$10
	.byte	$03
	.byte	$00
	.byte	$F8
	.byte	$10
	.byte	$19
	.byte	$00
	.byte	$F8
	.byte	$08
	.byte	$0A
	.byte	$00
	.byte	$F8
	.byte	$00
	.byte	$0B
	.byte	$00
	.byte	$00
	.byte	$00
	.byte	$0C
	.byte	$00
	.byte	$00
	.byte	$08
	.byte	$0F
	.byte	$00
	.byte	$F8
	.byte	$18
	.byte	$1A
	.byte	$00
	.byte	$80
_marathon_man_alan10_data:
	.byte	$F0
	.byte	$20
	.byte	$01
	.byte	$00
	.byte	$F0
	.byte	$18
	.byte	$02
	.byte	$00
	.byte	$F0
	.byte	$10
	.byte	$03
	.byte	$00
	.byte	$F8
	.byte	$10
	.byte	$19
	.byte	$00
	.byte	$F8
	.byte	$08
	.byte	$0A
	.byte	$00
	.byte	$F8
	.byte	$00
	.byte	$0B
	.byte	$00
	.byte	$00
	.byte	$00
	.byte	$0C
	.byte	$00
	.byte	$00
	.byte	$08
	.byte	$0F
	.byte	$00
	.byte	$F8
	.byte	$18
	.byte	$1A
	.byte	$00
	.byte	$F8
	.byte	$20
	.byte	$1B
	.byte	$00
	.byte	$80
_marathon_man_alan11_data:
	.byte	$F0
	.byte	$20
	.byte	$01
	.byte	$00
	.byte	$F0
	.byte	$18
	.byte	$02
	.byte	$00
	.byte	$F0
	.byte	$10
	.byte	$03
	.byte	$00
	.byte	$F8
	.byte	$10
	.byte	$19
	.byte	$00
	.byte	$F8
	.byte	$08
	.byte	$0A
	.byte	$00
	.byte	$F8
	.byte	$00
	.byte	$0B
	.byte	$00
	.byte	$00
	.byte	$00
	.byte	$0C
	.byte	$00
	.byte	$00
	.byte	$08
	.byte	$0F
	.byte	$00
	.byte	$F8
	.byte	$18
	.byte	$1C
	.byte	$00
	.byte	$F8
	.byte	$20
	.byte	$1B
	.byte	$00
	.byte	$80
_marathon_man_alan12_data:
	.byte	$F0
	.byte	$20
	.byte	$01
	.byte	$00
	.byte	$F0
	.byte	$18
	.byte	$1F
	.byte	$00
	.byte	$F0
	.byte	$10
	.byte	$03
	.byte	$00
	.byte	$F8
	.byte	$10
	.byte	$19
	.byte	$00
	.byte	$F8
	.byte	$08
	.byte	$0A
	.byte	$00
	.byte	$F8
	.byte	$00
	.byte	$0B
	.byte	$00
	.byte	$00
	.byte	$00
	.byte	$0C
	.byte	$00
	.byte	$00
	.byte	$08
	.byte	$0F
	.byte	$00
	.byte	$F8
	.byte	$18
	.byte	$1C
	.byte	$00
	.byte	$F8
	.byte	$20
	.byte	$1B
	.byte	$00
	.byte	$80
_marathon_man_alan13_data:
	.byte	$F0
	.byte	$20
	.byte	$01
	.byte	$00
	.byte	$F0
	.byte	$18
	.byte	$1F
	.byte	$00
	.byte	$F0
	.byte	$10
	.byte	$03
	.byte	$00
	.byte	$F8
	.byte	$10
	.byte	$19
	.byte	$00
	.byte	$F8
	.byte	$08
	.byte	$0A
	.byte	$00
	.byte	$F8
	.byte	$00
	.byte	$0B
	.byte	$00
	.byte	$00
	.byte	$00
	.byte	$0C
	.byte	$00
	.byte	$00
	.byte	$08
	.byte	$0F
	.byte	$00
	.byte	$F8
	.byte	$18
	.byte	$1C
	.byte	$00
	.byte	$F8
	.byte	$20
	.byte	$1B
	.byte	$00
	.byte	$08
	.byte	$00
	.byte	$20
	.byte	$00
	.byte	$80
_marathon_man_alan14_data:
	.byte	$F0
	.byte	$20
	.byte	$01
	.byte	$00
	.byte	$F0
	.byte	$18
	.byte	$1F
	.byte	$00
	.byte	$F0
	.byte	$10
	.byte	$03
	.byte	$00
	.byte	$F8
	.byte	$10
	.byte	$19
	.byte	$00
	.byte	$F8
	.byte	$08
	.byte	$0A
	.byte	$00
	.byte	$F8
	.byte	$00
	.byte	$0B
	.byte	$00
	.byte	$00
	.byte	$00
	.byte	$0C
	.byte	$00
	.byte	$00
	.byte	$08
	.byte	$0F
	.byte	$00
	.byte	$F8
	.byte	$18
	.byte	$1C
	.byte	$00
	.byte	$F8
	.byte	$20
	.byte	$1B
	.byte	$00
	.byte	$08
	.byte	$00
	.byte	$20
	.byte	$00
	.byte	$08
	.byte	$08
	.byte	$27
	.byte	$00
	.byte	$80
_marathon_man_alan15_data:
	.byte	$F0
	.byte	$20
	.byte	$01
	.byte	$00
	.byte	$F0
	.byte	$18
	.byte	$1F
	.byte	$00
	.byte	$F0
	.byte	$10
	.byte	$03
	.byte	$00
	.byte	$F8
	.byte	$10
	.byte	$19
	.byte	$00
	.byte	$F8
	.byte	$08
	.byte	$0A
	.byte	$00
	.byte	$F8
	.byte	$00
	.byte	$0B
	.byte	$00
	.byte	$00
	.byte	$00
	.byte	$0C
	.byte	$00
	.byte	$00
	.byte	$08
	.byte	$28
	.byte	$00
	.byte	$F8
	.byte	$18
	.byte	$1C
	.byte	$00
	.byte	$F8
	.byte	$20
	.byte	$1B
	.byte	$00
	.byte	$08
	.byte	$00
	.byte	$20
	.byte	$00
	.byte	$08
	.byte	$08
	.byte	$27
	.byte	$00
	.byte	$80
_marathon_man_alan16_data:
	.byte	$F0
	.byte	$20
	.byte	$01
	.byte	$00
	.byte	$F0
	.byte	$18
	.byte	$1F
	.byte	$00
	.byte	$F0
	.byte	$10
	.byte	$03
	.byte	$00
	.byte	$F8
	.byte	$10
	.byte	$19
	.byte	$00
	.byte	$F8
	.byte	$08
	.byte	$0A
	.byte	$00
	.byte	$F8
	.byte	$00
	.byte	$0B
	.byte	$00
	.byte	$00
	.byte	$00
	.byte	$0C
	.byte	$00
	.byte	$00
	.byte	$08
	.byte	$28
	.byte	$00
	.byte	$F8
	.byte	$18
	.byte	$1C
	.byte	$00
	.byte	$F8
	.byte	$20
	.byte	$1B
	.byte	$00
	.byte	$08
	.byte	$00
	.byte	$20
	.byte	$00
	.byte	$08
	.byte	$08
	.byte	$27
	.byte	$00
	.byte	$00
	.byte	$10
	.byte	$2C
	.byte	$00
	.byte	$80
_marathon_man_alan17_data:
	.byte	$F0
	.byte	$20
	.byte	$01
	.byte	$00
	.byte	$F0
	.byte	$18
	.byte	$1F
	.byte	$00
	.byte	$F0
	.byte	$10
	.byte	$03
	.byte	$00
	.byte	$F8
	.byte	$10
	.byte	$19
	.byte	$00
	.byte	$F8
	.byte	$08
	.byte	$0A
	.byte	$00
	.byte	$F8
	.byte	$00
	.byte	$0B
	.byte	$00
	.byte	$00
	.byte	$00
	.byte	$0C
	.byte	$00
	.byte	$00
	.byte	$08
	.byte	$28
	.byte	$00
	.byte	$F8
	.byte	$18
	.byte	$1C
	.byte	$00
	.byte	$F8
	.byte	$20
	.byte	$1B
	.byte	$00
	.byte	$08
	.byte	$00
	.byte	$20
	.byte	$00
	.byte	$08
	.byte	$08
	.byte	$27
	.byte	$00
	.byte	$00
	.byte	$10
	.byte	$2C
	.byte	$00
	.byte	$00
	.byte	$18
	.byte	$2F
	.byte	$00
	.byte	$80
_marathon_man_alan18_data:
	.byte	$F0
	.byte	$20
	.byte	$01
	.byte	$00
	.byte	$F0
	.byte	$18
	.byte	$1F
	.byte	$00
	.byte	$F0
	.byte	$10
	.byte	$03
	.byte	$00
	.byte	$F8
	.byte	$10
	.byte	$19
	.byte	$00
	.byte	$F8
	.byte	$08
	.byte	$0A
	.byte	$00
	.byte	$F8
	.byte	$00
	.byte	$0B
	.byte	$00
	.byte	$00
	.byte	$00
	.byte	$0C
	.byte	$00
	.byte	$00
	.byte	$08
	.byte	$28
	.byte	$00
	.byte	$F8
	.byte	$18
	.byte	$1C
	.byte	$00
	.byte	$F8
	.byte	$20
	.byte	$1B
	.byte	$00
	.byte	$08
	.byte	$00
	.byte	$20
	.byte	$00
	.byte	$08
	.byte	$08
	.byte	$27
	.byte	$00
	.byte	$00
	.byte	$10
	.byte	$2C
	.byte	$00
	.byte	$00
	.byte	$18
	.byte	$2F
	.byte	$00
	.byte	$00
	.byte	$20
	.byte	$30
	.byte	$00
	.byte	$80
_marathon_man_alan19_data:
	.byte	$F0
	.byte	$20
	.byte	$01
	.byte	$00
	.byte	$F0
	.byte	$18
	.byte	$1F
	.byte	$00
	.byte	$F0
	.byte	$10
	.byte	$03
	.byte	$00
	.byte	$F8
	.byte	$10
	.byte	$19
	.byte	$00
	.byte	$F8
	.byte	$08
	.byte	$0A
	.byte	$00
	.byte	$F8
	.byte	$00
	.byte	$0B
	.byte	$00
	.byte	$00
	.byte	$00
	.byte	$0C
	.byte	$00
	.byte	$00
	.byte	$08
	.byte	$28
	.byte	$00
	.byte	$F8
	.byte	$18
	.byte	$1C
	.byte	$00
	.byte	$F8
	.byte	$20
	.byte	$1B
	.byte	$00
	.byte	$08
	.byte	$00
	.byte	$20
	.byte	$00
	.byte	$08
	.byte	$08
	.byte	$27
	.byte	$00
	.byte	$00
	.byte	$10
	.byte	$2C
	.byte	$00
	.byte	$00
	.byte	$18
	.byte	$2F
	.byte	$00
	.byte	$00
	.byte	$20
	.byte	$30
	.byte	$00
	.byte	$08
	.byte	$20
	.byte	$80
	.byte	$00
	.byte	$80
_marathon_man_alan20_data:
	.byte	$F0
	.byte	$20
	.byte	$01
	.byte	$00
	.byte	$F0
	.byte	$18
	.byte	$1F
	.byte	$00
	.byte	$F0
	.byte	$10
	.byte	$03
	.byte	$00
	.byte	$F8
	.byte	$10
	.byte	$19
	.byte	$00
	.byte	$F8
	.byte	$08
	.byte	$0A
	.byte	$00
	.byte	$F8
	.byte	$00
	.byte	$0B
	.byte	$00
	.byte	$00
	.byte	$00
	.byte	$0C
	.byte	$00
	.byte	$00
	.byte	$08
	.byte	$28
	.byte	$00
	.byte	$F8
	.byte	$18
	.byte	$1C
	.byte	$00
	.byte	$F8
	.byte	$20
	.byte	$1B
	.byte	$00
	.byte	$08
	.byte	$00
	.byte	$20
	.byte	$00
	.byte	$08
	.byte	$08
	.byte	$27
	.byte	$00
	.byte	$00
	.byte	$10
	.byte	$2C
	.byte	$00
	.byte	$00
	.byte	$18
	.byte	$2F
	.byte	$00
	.byte	$00
	.byte	$20
	.byte	$37
	.byte	$00
	.byte	$08
	.byte	$20
	.byte	$80
	.byte	$00
	.byte	$80
_marathon_man_alan21_data:
	.byte	$F0
	.byte	$20
	.byte	$01
	.byte	$00
	.byte	$F0
	.byte	$18
	.byte	$1F
	.byte	$00
	.byte	$F0
	.byte	$10
	.byte	$03
	.byte	$00
	.byte	$F8
	.byte	$10
	.byte	$19
	.byte	$00
	.byte	$F8
	.byte	$08
	.byte	$0A
	.byte	$00
	.byte	$F8
	.byte	$00
	.byte	$0B
	.byte	$00
	.byte	$00
	.byte	$00
	.byte	$0C
	.byte	$00
	.byte	$00
	.byte	$08
	.byte	$28
	.byte	$00
	.byte	$F8
	.byte	$18
	.byte	$1C
	.byte	$00
	.byte	$F8
	.byte	$20
	.byte	$1B
	.byte	$00
	.byte	$08
	.byte	$00
	.byte	$20
	.byte	$00
	.byte	$08
	.byte	$08
	.byte	$27
	.byte	$00
	.byte	$00
	.byte	$10
	.byte	$2C
	.byte	$00
	.byte	$00
	.byte	$18
	.byte	$2F
	.byte	$00
	.byte	$00
	.byte	$20
	.byte	$37
	.byte	$00
	.byte	$08
	.byte	$20
	.byte	$38
	.byte	$00
	.byte	$80
_marathon_man_alan22_data:
	.byte	$F0
	.byte	$20
	.byte	$01
	.byte	$00
	.byte	$F0
	.byte	$18
	.byte	$1F
	.byte	$00
	.byte	$F0
	.byte	$10
	.byte	$03
	.byte	$00
	.byte	$F8
	.byte	$10
	.byte	$19
	.byte	$00
	.byte	$F8
	.byte	$08
	.byte	$0A
	.byte	$00
	.byte	$F8
	.byte	$00
	.byte	$0B
	.byte	$00
	.byte	$00
	.byte	$00
	.byte	$0C
	.byte	$00
	.byte	$00
	.byte	$08
	.byte	$28
	.byte	$00
	.byte	$F8
	.byte	$18
	.byte	$1C
	.byte	$00
	.byte	$F8
	.byte	$20
	.byte	$1B
	.byte	$00
	.byte	$08
	.byte	$00
	.byte	$20
	.byte	$00
	.byte	$08
	.byte	$08
	.byte	$27
	.byte	$00
	.byte	$00
	.byte	$10
	.byte	$2C
	.byte	$00
	.byte	$00
	.byte	$18
	.byte	$2F
	.byte	$00
	.byte	$00
	.byte	$20
	.byte	$37
	.byte	$00
	.byte	$08
	.byte	$20
	.byte	$38
	.byte	$00
	.byte	$20
	.byte	$08
	.byte	$3F
	.byte	$00
	.byte	$80
_marathon_man_alan23_data:
	.byte	$F0
	.byte	$20
	.byte	$01
	.byte	$00
	.byte	$F0
	.byte	$18
	.byte	$1F
	.byte	$00
	.byte	$F0
	.byte	$10
	.byte	$03
	.byte	$00
	.byte	$F8
	.byte	$10
	.byte	$19
	.byte	$00
	.byte	$F8
	.byte	$08
	.byte	$0A
	.byte	$00
	.byte	$F8
	.byte	$00
	.byte	$0B
	.byte	$00
	.byte	$00
	.byte	$00
	.byte	$0C
	.byte	$00
	.byte	$00
	.byte	$08
	.byte	$28
	.byte	$00
	.byte	$F8
	.byte	$18
	.byte	$1C
	.byte	$00
	.byte	$F8
	.byte	$20
	.byte	$1B
	.byte	$00
	.byte	$08
	.byte	$00
	.byte	$20
	.byte	$00
	.byte	$08
	.byte	$08
	.byte	$27
	.byte	$00
	.byte	$00
	.byte	$10
	.byte	$2C
	.byte	$00
	.byte	$00
	.byte	$18
	.byte	$2F
	.byte	$00
	.byte	$00
	.byte	$20
	.byte	$37
	.byte	$00
	.byte	$08
	.byte	$20
	.byte	$38
	.byte	$00
	.byte	$20
	.byte	$08
	.byte	$3F
	.byte	$00
	.byte	$20
	.byte	$10
	.byte	$40
	.byte	$00
	.byte	$80
_marathon_man_alan24_data:
	.byte	$F0
	.byte	$20
	.byte	$01
	.byte	$00
	.byte	$F0
	.byte	$18
	.byte	$1F
	.byte	$00
	.byte	$F0
	.byte	$10
	.byte	$03
	.byte	$00
	.byte	$F8
	.byte	$10
	.byte	$19
	.byte	$00
	.byte	$F8
	.byte	$08
	.byte	$0A
	.byte	$00
	.byte	$F8
	.byte	$00
	.byte	$0B
	.byte	$00
	.byte	$00
	.byte	$00
	.byte	$0C
	.byte	$00
	.byte	$00
	.byte	$08
	.byte	$28
	.byte	$00
	.byte	$F8
	.byte	$18
	.byte	$1C
	.byte	$00
	.byte	$F8
	.byte	$20
	.byte	$1B
	.byte	$00
	.byte	$08
	.byte	$00
	.byte	$20
	.byte	$00
	.byte	$08
	.byte	$08
	.byte	$27
	.byte	$00
	.byte	$00
	.byte	$10
	.byte	$2C
	.byte	$00
	.byte	$00
	.byte	$18
	.byte	$2F
	.byte	$00
	.byte	$00
	.byte	$20
	.byte	$37
	.byte	$00
	.byte	$08
	.byte	$20
	.byte	$38
	.byte	$00
	.byte	$20
	.byte	$08
	.byte	$3F
	.byte	$00
	.byte	$20
	.byte	$10
	.byte	$40
	.byte	$00
	.byte	$18
	.byte	$10
	.byte	$44
	.byte	$00
	.byte	$80
_marathon_man_alan25_data:
	.byte	$F0
	.byte	$20
	.byte	$01
	.byte	$00
	.byte	$F0
	.byte	$18
	.byte	$1F
	.byte	$00
	.byte	$F0
	.byte	$10
	.byte	$03
	.byte	$00
	.byte	$F8
	.byte	$10
	.byte	$19
	.byte	$00
	.byte	$F8
	.byte	$08
	.byte	$0A
	.byte	$00
	.byte	$F8
	.byte	$00
	.byte	$0B
	.byte	$00
	.byte	$00
	.byte	$00
	.byte	$0C
	.byte	$00
	.byte	$00
	.byte	$08
	.byte	$28
	.byte	$00
	.byte	$F8
	.byte	$18
	.byte	$1C
	.byte	$00
	.byte	$F8
	.byte	$20
	.byte	$1B
	.byte	$00
	.byte	$08
	.byte	$00
	.byte	$20
	.byte	$00
	.byte	$08
	.byte	$08
	.byte	$27
	.byte	$00
	.byte	$00
	.byte	$10
	.byte	$2C
	.byte	$00
	.byte	$00
	.byte	$18
	.byte	$2F
	.byte	$00
	.byte	$00
	.byte	$20
	.byte	$37
	.byte	$00
	.byte	$08
	.byte	$20
	.byte	$38
	.byte	$00
	.byte	$20
	.byte	$08
	.byte	$3F
	.byte	$00
	.byte	$20
	.byte	$10
	.byte	$40
	.byte	$00
	.byte	$18
	.byte	$10
	.byte	$44
	.byte	$00
	.byte	$18
	.byte	$18
	.byte	$47
	.byte	$00
	.byte	$80
_marathon_man_alan26_data:
	.byte	$F0
	.byte	$20
	.byte	$01
	.byte	$00
	.byte	$F0
	.byte	$18
	.byte	$1F
	.byte	$00
	.byte	$F0
	.byte	$10
	.byte	$03
	.byte	$00
	.byte	$F8
	.byte	$10
	.byte	$19
	.byte	$00
	.byte	$F8
	.byte	$08
	.byte	$0A
	.byte	$00
	.byte	$F8
	.byte	$00
	.byte	$0B
	.byte	$00
	.byte	$00
	.byte	$00
	.byte	$0C
	.byte	$00
	.byte	$00
	.byte	$08
	.byte	$28
	.byte	$00
	.byte	$F8
	.byte	$18
	.byte	$1C
	.byte	$00
	.byte	$F8
	.byte	$20
	.byte	$1B
	.byte	$00
	.byte	$08
	.byte	$00
	.byte	$20
	.byte	$00
	.byte	$08
	.byte	$08
	.byte	$27
	.byte	$00
	.byte	$00
	.byte	$10
	.byte	$2C
	.byte	$00
	.byte	$00
	.byte	$18
	.byte	$2F
	.byte	$00
	.byte	$00
	.byte	$20
	.byte	$37
	.byte	$00
	.byte	$08
	.byte	$20
	.byte	$38
	.byte	$00
	.byte	$20
	.byte	$08
	.byte	$3F
	.byte	$00
	.byte	$20
	.byte	$10
	.byte	$40
	.byte	$00
	.byte	$18
	.byte	$10
	.byte	$44
	.byte	$00
	.byte	$18
	.byte	$18
	.byte	$47
	.byte	$00
	.byte	$18
	.byte	$20
	.byte	$48
	.byte	$00
	.byte	$80
_marathon_man_alan27_data:
	.byte	$F0
	.byte	$20
	.byte	$01
	.byte	$00
	.byte	$F0
	.byte	$18
	.byte	$1F
	.byte	$00
	.byte	$F0
	.byte	$10
	.byte	$03
	.byte	$00
	.byte	$F8
	.byte	$10
	.byte	$19
	.byte	$00
	.byte	$F8
	.byte	$08
	.byte	$0A
	.byte	$00
	.byte	$F8
	.byte	$00
	.byte	$0B
	.byte	$00
	.byte	$00
	.byte	$00
	.byte	$0C
	.byte	$00
	.byte	$00
	.byte	$08
	.byte	$28
	.byte	$00
	.byte	$F8
	.byte	$18
	.byte	$1C
	.byte	$00
	.byte	$F8
	.byte	$20
	.byte	$1B
	.byte	$00
	.byte	$08
	.byte	$00
	.byte	$20
	.byte	$00
	.byte	$08
	.byte	$08
	.byte	$27
	.byte	$00
	.byte	$00
	.byte	$10
	.byte	$2C
	.byte	$00
	.byte	$00
	.byte	$18
	.byte	$2F
	.byte	$00
	.byte	$00
	.byte	$20
	.byte	$37
	.byte	$00
	.byte	$08
	.byte	$20
	.byte	$38
	.byte	$00
	.byte	$20
	.byte	$08
	.byte	$3F
	.byte	$00
	.byte	$20
	.byte	$10
	.byte	$40
	.byte	$00
	.byte	$18
	.byte	$10
	.byte	$44
	.byte	$00
	.byte	$18
	.byte	$18
	.byte	$47
	.byte	$00
	.byte	$18
	.byte	$20
	.byte	$48
	.byte	$00
	.byte	$18
	.byte	$28
	.byte	$4F
	.byte	$00
	.byte	$80
_marathon_man_alan28_data:
	.byte	$F0
	.byte	$20
	.byte	$01
	.byte	$00
	.byte	$F0
	.byte	$18
	.byte	$1F
	.byte	$00
	.byte	$F0
	.byte	$10
	.byte	$03
	.byte	$00
	.byte	$F8
	.byte	$10
	.byte	$19
	.byte	$00
	.byte	$F8
	.byte	$08
	.byte	$0A
	.byte	$00
	.byte	$F8
	.byte	$00
	.byte	$0B
	.byte	$00
	.byte	$00
	.byte	$00
	.byte	$0C
	.byte	$00
	.byte	$00
	.byte	$08
	.byte	$28
	.byte	$00
	.byte	$F8
	.byte	$18
	.byte	$1C
	.byte	$00
	.byte	$F8
	.byte	$20
	.byte	$1B
	.byte	$00
	.byte	$08
	.byte	$00
	.byte	$20
	.byte	$00
	.byte	$08
	.byte	$08
	.byte	$27
	.byte	$00
	.byte	$00
	.byte	$10
	.byte	$2C
	.byte	$00
	.byte	$00
	.byte	$18
	.byte	$2F
	.byte	$00
	.byte	$00
	.byte	$20
	.byte	$37
	.byte	$00
	.byte	$08
	.byte	$20
	.byte	$38
	.byte	$00
	.byte	$20
	.byte	$08
	.byte	$3F
	.byte	$00
	.byte	$20
	.byte	$10
	.byte	$40
	.byte	$00
	.byte	$18
	.byte	$10
	.byte	$44
	.byte	$00
	.byte	$18
	.byte	$18
	.byte	$47
	.byte	$00
	.byte	$18
	.byte	$20
	.byte	$48
	.byte	$00
	.byte	$18
	.byte	$28
	.byte	$4F
	.byte	$00
	.byte	$10
	.byte	$30
	.byte	$50
	.byte	$00
	.byte	$80
_marathon_man_alan29_data:
	.byte	$F0
	.byte	$20
	.byte	$01
	.byte	$00
	.byte	$F0
	.byte	$18
	.byte	$1F
	.byte	$00
	.byte	$F0
	.byte	$10
	.byte	$03
	.byte	$00
	.byte	$F8
	.byte	$10
	.byte	$19
	.byte	$00
	.byte	$F8
	.byte	$08
	.byte	$0A
	.byte	$00
	.byte	$F8
	.byte	$00
	.byte	$0B
	.byte	$00
	.byte	$00
	.byte	$00
	.byte	$0C
	.byte	$00
	.byte	$00
	.byte	$08
	.byte	$28
	.byte	$00
	.byte	$F8
	.byte	$18
	.byte	$1C
	.byte	$00
	.byte	$F8
	.byte	$20
	.byte	$1B
	.byte	$00
	.byte	$08
	.byte	$00
	.byte	$20
	.byte	$00
	.byte	$08
	.byte	$08
	.byte	$27
	.byte	$00
	.byte	$00
	.byte	$10
	.byte	$2C
	.byte	$00
	.byte	$00
	.byte	$18
	.byte	$2F
	.byte	$00
	.byte	$00
	.byte	$20
	.byte	$37
	.byte	$00
	.byte	$08
	.byte	$20
	.byte	$38
	.byte	$00
	.byte	$20
	.byte	$08
	.byte	$3F
	.byte	$00
	.byte	$20
	.byte	$10
	.byte	$40
	.byte	$00
	.byte	$18
	.byte	$10
	.byte	$44
	.byte	$00
	.byte	$18
	.byte	$18
	.byte	$47
	.byte	$00
	.byte	$18
	.byte	$20
	.byte	$48
	.byte	$00
	.byte	$18
	.byte	$28
	.byte	$4F
	.byte	$00
	.byte	$10
	.byte	$30
	.byte	$50
	.byte	$00
	.byte	$38
	.byte	$00
	.byte	$57
	.byte	$00
	.byte	$80
_marathon_man_alan30_data:
	.byte	$F0
	.byte	$20
	.byte	$01
	.byte	$00
	.byte	$F0
	.byte	$18
	.byte	$1F
	.byte	$00
	.byte	$F0
	.byte	$10
	.byte	$03
	.byte	$00
	.byte	$F8
	.byte	$10
	.byte	$19
	.byte	$00
	.byte	$F8
	.byte	$08
	.byte	$0A
	.byte	$00
	.byte	$F8
	.byte	$00
	.byte	$0B
	.byte	$00
	.byte	$00
	.byte	$00
	.byte	$0C
	.byte	$00
	.byte	$00
	.byte	$08
	.byte	$28
	.byte	$00
	.byte	$F8
	.byte	$18
	.byte	$1C
	.byte	$00
	.byte	$F8
	.byte	$20
	.byte	$1B
	.byte	$00
	.byte	$08
	.byte	$00
	.byte	$20
	.byte	$00
	.byte	$08
	.byte	$08
	.byte	$27
	.byte	$00
	.byte	$00
	.byte	$10
	.byte	$2C
	.byte	$00
	.byte	$00
	.byte	$18
	.byte	$2F
	.byte	$00
	.byte	$00
	.byte	$20
	.byte	$37
	.byte	$00
	.byte	$08
	.byte	$20
	.byte	$38
	.byte	$00
	.byte	$20
	.byte	$08
	.byte	$3F
	.byte	$00
	.byte	$20
	.byte	$10
	.byte	$40
	.byte	$00
	.byte	$18
	.byte	$10
	.byte	$44
	.byte	$00
	.byte	$18
	.byte	$18
	.byte	$47
	.byte	$00
	.byte	$18
	.byte	$20
	.byte	$48
	.byte	$00
	.byte	$18
	.byte	$28
	.byte	$4F
	.byte	$00
	.byte	$10
	.byte	$30
	.byte	$50
	.byte	$00
	.byte	$38
	.byte	$00
	.byte	$57
	.byte	$00
	.byte	$30
	.byte	$00
	.byte	$6C
	.byte	$00
	.byte	$80
_marathon_man_alan31_data:
	.byte	$F0
	.byte	$20
	.byte	$01
	.byte	$00
	.byte	$F0
	.byte	$18
	.byte	$1F
	.byte	$00
	.byte	$F0
	.byte	$10
	.byte	$03
	.byte	$00
	.byte	$F8
	.byte	$10
	.byte	$19
	.byte	$00
	.byte	$F8
	.byte	$08
	.byte	$0A
	.byte	$00
	.byte	$F8
	.byte	$00
	.byte	$0B
	.byte	$00
	.byte	$00
	.byte	$00
	.byte	$0C
	.byte	$00
	.byte	$00
	.byte	$08
	.byte	$28
	.byte	$00
	.byte	$F8
	.byte	$18
	.byte	$1C
	.byte	$00
	.byte	$F8
	.byte	$20
	.byte	$1B
	.byte	$00
	.byte	$08
	.byte	$00
	.byte	$20
	.byte	$00
	.byte	$08
	.byte	$08
	.byte	$27
	.byte	$00
	.byte	$00
	.byte	$10
	.byte	$2C
	.byte	$00
	.byte	$00
	.byte	$18
	.byte	$2F
	.byte	$00
	.byte	$00
	.byte	$20
	.byte	$37
	.byte	$00
	.byte	$08
	.byte	$20
	.byte	$38
	.byte	$00
	.byte	$20
	.byte	$08
	.byte	$3F
	.byte	$00
	.byte	$20
	.byte	$10
	.byte	$40
	.byte	$00
	.byte	$18
	.byte	$10
	.byte	$44
	.byte	$00
	.byte	$18
	.byte	$18
	.byte	$47
	.byte	$00
	.byte	$18
	.byte	$20
	.byte	$48
	.byte	$00
	.byte	$18
	.byte	$28
	.byte	$4F
	.byte	$00
	.byte	$10
	.byte	$30
	.byte	$50
	.byte	$00
	.byte	$38
	.byte	$00
	.byte	$57
	.byte	$00
	.byte	$30
	.byte	$00
	.byte	$6C
	.byte	$00
	.byte	$28
	.byte	$00
	.byte	$6D
	.byte	$00
	.byte	$80
_marathon_man_alan32_data:
	.byte	$F0
	.byte	$20
	.byte	$01
	.byte	$00
	.byte	$F0
	.byte	$18
	.byte	$1F
	.byte	$00
	.byte	$F0
	.byte	$10
	.byte	$03
	.byte	$00
	.byte	$F8
	.byte	$10
	.byte	$19
	.byte	$00
	.byte	$F8
	.byte	$08
	.byte	$0A
	.byte	$00
	.byte	$F8
	.byte	$00
	.byte	$0B
	.byte	$00
	.byte	$00
	.byte	$00
	.byte	$0C
	.byte	$00
	.byte	$00
	.byte	$08
	.byte	$28
	.byte	$00
	.byte	$F8
	.byte	$18
	.byte	$1C
	.byte	$00
	.byte	$F8
	.byte	$20
	.byte	$1B
	.byte	$00
	.byte	$08
	.byte	$00
	.byte	$20
	.byte	$00
	.byte	$08
	.byte	$08
	.byte	$27
	.byte	$00
	.byte	$00
	.byte	$10
	.byte	$2C
	.byte	$00
	.byte	$00
	.byte	$18
	.byte	$2F
	.byte	$00
	.byte	$00
	.byte	$20
	.byte	$37
	.byte	$00
	.byte	$08
	.byte	$20
	.byte	$38
	.byte	$00
	.byte	$20
	.byte	$08
	.byte	$3F
	.byte	$00
	.byte	$20
	.byte	$10
	.byte	$40
	.byte	$00
	.byte	$18
	.byte	$10
	.byte	$44
	.byte	$00
	.byte	$18
	.byte	$18
	.byte	$47
	.byte	$00
	.byte	$18
	.byte	$20
	.byte	$48
	.byte	$00
	.byte	$18
	.byte	$28
	.byte	$4F
	.byte	$00
	.byte	$10
	.byte	$30
	.byte	$50
	.byte	$00
	.byte	$38
	.byte	$00
	.byte	$57
	.byte	$00
	.byte	$30
	.byte	$00
	.byte	$6C
	.byte	$00
	.byte	$28
	.byte	$00
	.byte	$6D
	.byte	$00
	.byte	$20
	.byte	$00
	.byte	$70
	.byte	$00
	.byte	$80
_marathon_man_alan33_data:
	.byte	$F0
	.byte	$20
	.byte	$01
	.byte	$00
	.byte	$F0
	.byte	$18
	.byte	$1F
	.byte	$00
	.byte	$F0
	.byte	$10
	.byte	$03
	.byte	$00
	.byte	$F8
	.byte	$10
	.byte	$19
	.byte	$00
	.byte	$F8
	.byte	$08
	.byte	$0A
	.byte	$00
	.byte	$F8
	.byte	$00
	.byte	$0B
	.byte	$00
	.byte	$00
	.byte	$00
	.byte	$0C
	.byte	$00
	.byte	$00
	.byte	$08
	.byte	$28
	.byte	$00
	.byte	$F8
	.byte	$18
	.byte	$1C
	.byte	$00
	.byte	$F8
	.byte	$20
	.byte	$1B
	.byte	$00
	.byte	$08
	.byte	$00
	.byte	$20
	.byte	$00
	.byte	$08
	.byte	$08
	.byte	$27
	.byte	$00
	.byte	$00
	.byte	$10
	.byte	$2C
	.byte	$00
	.byte	$00
	.byte	$18
	.byte	$2F
	.byte	$00
	.byte	$00
	.byte	$20
	.byte	$37
	.byte	$00
	.byte	$08
	.byte	$20
	.byte	$38
	.byte	$00
	.byte	$20
	.byte	$08
	.byte	$77
	.byte	$00
	.byte	$20
	.byte	$10
	.byte	$40
	.byte	$00
	.byte	$18
	.byte	$10
	.byte	$44
	.byte	$00
	.byte	$18
	.byte	$18
	.byte	$47
	.byte	$00
	.byte	$18
	.byte	$20
	.byte	$48
	.byte	$00
	.byte	$18
	.byte	$28
	.byte	$4F
	.byte	$00
	.byte	$10
	.byte	$30
	.byte	$50
	.byte	$00
	.byte	$38
	.byte	$00
	.byte	$57
	.byte	$00
	.byte	$30
	.byte	$00
	.byte	$6C
	.byte	$00
	.byte	$28
	.byte	$00
	.byte	$6D
	.byte	$00
	.byte	$20
	.byte	$00
	.byte	$70
	.byte	$00
	.byte	$80
_marathon_man_alan34_data:
	.byte	$F0
	.byte	$20
	.byte	$01
	.byte	$00
	.byte	$F0
	.byte	$18
	.byte	$1F
	.byte	$00
	.byte	$F0
	.byte	$10
	.byte	$03
	.byte	$00
	.byte	$F8
	.byte	$10
	.byte	$19
	.byte	$00
	.byte	$F8
	.byte	$08
	.byte	$0A
	.byte	$00
	.byte	$F8
	.byte	$00
	.byte	$0B
	.byte	$00
	.byte	$00
	.byte	$00
	.byte	$0C
	.byte	$00
	.byte	$00
	.byte	$08
	.byte	$28
	.byte	$00
	.byte	$F8
	.byte	$18
	.byte	$1C
	.byte	$00
	.byte	$F8
	.byte	$20
	.byte	$1B
	.byte	$00
	.byte	$08
	.byte	$00
	.byte	$20
	.byte	$00
	.byte	$08
	.byte	$08
	.byte	$27
	.byte	$00
	.byte	$00
	.byte	$10
	.byte	$2C
	.byte	$00
	.byte	$00
	.byte	$18
	.byte	$2F
	.byte	$00
	.byte	$00
	.byte	$20
	.byte	$37
	.byte	$00
	.byte	$08
	.byte	$20
	.byte	$38
	.byte	$00
	.byte	$20
	.byte	$08
	.byte	$77
	.byte	$00
	.byte	$20
	.byte	$10
	.byte	$40
	.byte	$00
	.byte	$18
	.byte	$10
	.byte	$44
	.byte	$00
	.byte	$18
	.byte	$18
	.byte	$47
	.byte	$00
	.byte	$18
	.byte	$20
	.byte	$48
	.byte	$00
	.byte	$18
	.byte	$28
	.byte	$4F
	.byte	$00
	.byte	$10
	.byte	$30
	.byte	$50
	.byte	$00
	.byte	$38
	.byte	$00
	.byte	$57
	.byte	$00
	.byte	$30
	.byte	$00
	.byte	$6C
	.byte	$00
	.byte	$28
	.byte	$00
	.byte	$6D
	.byte	$00
	.byte	$20
	.byte	$00
	.byte	$70
	.byte	$00
	.byte	$18
	.byte	$08
	.byte	$78
	.byte	$00
	.byte	$80
_marathon_man_alan35_data:
	.byte	$F0
	.byte	$20
	.byte	$01
	.byte	$00
	.byte	$F0
	.byte	$18
	.byte	$1F
	.byte	$00
	.byte	$F0
	.byte	$10
	.byte	$03
	.byte	$00
	.byte	$F8
	.byte	$10
	.byte	$19
	.byte	$00
	.byte	$F8
	.byte	$08
	.byte	$0A
	.byte	$00
	.byte	$F8
	.byte	$00
	.byte	$0B
	.byte	$00
	.byte	$00
	.byte	$00
	.byte	$0C
	.byte	$00
	.byte	$00
	.byte	$08
	.byte	$28
	.byte	$00
	.byte	$F8
	.byte	$18
	.byte	$1C
	.byte	$00
	.byte	$F8
	.byte	$20
	.byte	$1B
	.byte	$00
	.byte	$08
	.byte	$00
	.byte	$20
	.byte	$00
	.byte	$08
	.byte	$08
	.byte	$27
	.byte	$00
	.byte	$00
	.byte	$10
	.byte	$2C
	.byte	$00
	.byte	$00
	.byte	$18
	.byte	$2F
	.byte	$00
	.byte	$00
	.byte	$20
	.byte	$37
	.byte	$00
	.byte	$08
	.byte	$20
	.byte	$38
	.byte	$00
	.byte	$20
	.byte	$08
	.byte	$77
	.byte	$00
	.byte	$20
	.byte	$10
	.byte	$40
	.byte	$00
	.byte	$18
	.byte	$10
	.byte	$44
	.byte	$00
	.byte	$18
	.byte	$18
	.byte	$47
	.byte	$00
	.byte	$18
	.byte	$20
	.byte	$48
	.byte	$00
	.byte	$18
	.byte	$28
	.byte	$4F
	.byte	$00
	.byte	$10
	.byte	$30
	.byte	$50
	.byte	$00
	.byte	$38
	.byte	$00
	.byte	$57
	.byte	$00
	.byte	$30
	.byte	$00
	.byte	$6C
	.byte	$00
	.byte	$28
	.byte	$00
	.byte	$6D
	.byte	$00
	.byte	$20
	.byte	$00
	.byte	$70
	.byte	$00
	.byte	$18
	.byte	$08
	.byte	$78
	.byte	$00
	.byte	$10
	.byte	$08
	.byte	$79
	.byte	$00
	.byte	$80
_marathon_man_alan36_data:
	.byte	$F0
	.byte	$20
	.byte	$01
	.byte	$00
	.byte	$F0
	.byte	$18
	.byte	$1F
	.byte	$00
	.byte	$F0
	.byte	$10
	.byte	$03
	.byte	$00
	.byte	$F8
	.byte	$10
	.byte	$19
	.byte	$00
	.byte	$F8
	.byte	$08
	.byte	$0A
	.byte	$00
	.byte	$F8
	.byte	$00
	.byte	$0B
	.byte	$00
	.byte	$00
	.byte	$00
	.byte	$0C
	.byte	$00
	.byte	$00
	.byte	$08
	.byte	$28
	.byte	$00
	.byte	$F8
	.byte	$18
	.byte	$1C
	.byte	$00
	.byte	$F8
	.byte	$20
	.byte	$1B
	.byte	$00
	.byte	$08
	.byte	$00
	.byte	$20
	.byte	$00
	.byte	$08
	.byte	$08
	.byte	$27
	.byte	$00
	.byte	$00
	.byte	$10
	.byte	$2C
	.byte	$00
	.byte	$00
	.byte	$18
	.byte	$2F
	.byte	$00
	.byte	$00
	.byte	$20
	.byte	$37
	.byte	$00
	.byte	$08
	.byte	$20
	.byte	$38
	.byte	$00
	.byte	$20
	.byte	$08
	.byte	$77
	.byte	$00
	.byte	$20
	.byte	$10
	.byte	$40
	.byte	$00
	.byte	$18
	.byte	$10
	.byte	$44
	.byte	$00
	.byte	$18
	.byte	$18
	.byte	$47
	.byte	$00
	.byte	$18
	.byte	$20
	.byte	$48
	.byte	$00
	.byte	$18
	.byte	$28
	.byte	$4F
	.byte	$00
	.byte	$10
	.byte	$30
	.byte	$50
	.byte	$00
	.byte	$38
	.byte	$00
	.byte	$57
	.byte	$00
	.byte	$30
	.byte	$00
	.byte	$6C
	.byte	$00
	.byte	$28
	.byte	$00
	.byte	$6D
	.byte	$00
	.byte	$20
	.byte	$00
	.byte	$70
	.byte	$00
	.byte	$18
	.byte	$08
	.byte	$78
	.byte	$00
	.byte	$10
	.byte	$08
	.byte	$79
	.byte	$00
	.byte	$20
	.byte	$18
	.byte	$7A
	.byte	$00
	.byte	$80
_marathon_man_alan37_data:
	.byte	$F0
	.byte	$20
	.byte	$01
	.byte	$00
	.byte	$F0
	.byte	$18
	.byte	$1F
	.byte	$00
	.byte	$F0
	.byte	$10
	.byte	$03
	.byte	$00
	.byte	$F8
	.byte	$10
	.byte	$19
	.byte	$00
	.byte	$F8
	.byte	$08
	.byte	$0A
	.byte	$00
	.byte	$F8
	.byte	$00
	.byte	$0B
	.byte	$00
	.byte	$00
	.byte	$00
	.byte	$0C
	.byte	$00
	.byte	$00
	.byte	$08
	.byte	$28
	.byte	$00
	.byte	$F8
	.byte	$18
	.byte	$1C
	.byte	$00
	.byte	$F8
	.byte	$20
	.byte	$1B
	.byte	$00
	.byte	$08
	.byte	$00
	.byte	$20
	.byte	$00
	.byte	$08
	.byte	$08
	.byte	$27
	.byte	$00
	.byte	$00
	.byte	$10
	.byte	$2C
	.byte	$00
	.byte	$00
	.byte	$18
	.byte	$2F
	.byte	$00
	.byte	$00
	.byte	$20
	.byte	$37
	.byte	$00
	.byte	$08
	.byte	$20
	.byte	$38
	.byte	$00
	.byte	$20
	.byte	$08
	.byte	$77
	.byte	$00
	.byte	$20
	.byte	$10
	.byte	$40
	.byte	$00
	.byte	$18
	.byte	$10
	.byte	$44
	.byte	$00
	.byte	$18
	.byte	$18
	.byte	$7D
	.byte	$00
	.byte	$18
	.byte	$20
	.byte	$48
	.byte	$00
	.byte	$18
	.byte	$28
	.byte	$4F
	.byte	$00
	.byte	$10
	.byte	$30
	.byte	$50
	.byte	$00
	.byte	$38
	.byte	$00
	.byte	$57
	.byte	$00
	.byte	$30
	.byte	$00
	.byte	$6C
	.byte	$00
	.byte	$28
	.byte	$00
	.byte	$6D
	.byte	$00
	.byte	$20
	.byte	$00
	.byte	$70
	.byte	$00
	.byte	$18
	.byte	$08
	.byte	$78
	.byte	$00
	.byte	$10
	.byte	$08
	.byte	$79
	.byte	$00
	.byte	$20
	.byte	$18
	.byte	$7A
	.byte	$00
	.byte	$80
_marathon_man_alan38_data:
	.byte	$F0
	.byte	$20
	.byte	$01
	.byte	$00
	.byte	$F0
	.byte	$18
	.byte	$1F
	.byte	$00
	.byte	$F0
	.byte	$10
	.byte	$03
	.byte	$00
	.byte	$F8
	.byte	$10
	.byte	$19
	.byte	$00
	.byte	$F8
	.byte	$08
	.byte	$0A
	.byte	$00
	.byte	$F8
	.byte	$00
	.byte	$0B
	.byte	$00
	.byte	$00
	.byte	$00
	.byte	$0C
	.byte	$00
	.byte	$00
	.byte	$08
	.byte	$28
	.byte	$00
	.byte	$F8
	.byte	$18
	.byte	$1C
	.byte	$00
	.byte	$F8
	.byte	$20
	.byte	$1B
	.byte	$00
	.byte	$08
	.byte	$00
	.byte	$20
	.byte	$00
	.byte	$08
	.byte	$08
	.byte	$27
	.byte	$00
	.byte	$00
	.byte	$10
	.byte	$2C
	.byte	$00
	.byte	$00
	.byte	$18
	.byte	$2F
	.byte	$00
	.byte	$00
	.byte	$20
	.byte	$37
	.byte	$00
	.byte	$08
	.byte	$20
	.byte	$38
	.byte	$00
	.byte	$20
	.byte	$08
	.byte	$77
	.byte	$00
	.byte	$20
	.byte	$10
	.byte	$40
	.byte	$00
	.byte	$18
	.byte	$10
	.byte	$44
	.byte	$00
	.byte	$18
	.byte	$18
	.byte	$7D
	.byte	$00
	.byte	$18
	.byte	$20
	.byte	$48
	.byte	$00
	.byte	$18
	.byte	$28
	.byte	$4F
	.byte	$00
	.byte	$10
	.byte	$30
	.byte	$50
	.byte	$00
	.byte	$38
	.byte	$00
	.byte	$57
	.byte	$00
	.byte	$30
	.byte	$00
	.byte	$6C
	.byte	$00
	.byte	$28
	.byte	$00
	.byte	$6D
	.byte	$00
	.byte	$20
	.byte	$00
	.byte	$70
	.byte	$00
	.byte	$18
	.byte	$08
	.byte	$78
	.byte	$00
	.byte	$10
	.byte	$08
	.byte	$79
	.byte	$00
	.byte	$20
	.byte	$18
	.byte	$7A
	.byte	$00
	.byte	$20
	.byte	$20
	.byte	$81
	.byte	$00
	.byte	$80
_marathon_man_alan39_data:
	.byte	$F0
	.byte	$20
	.byte	$01
	.byte	$00
	.byte	$F0
	.byte	$18
	.byte	$1F
	.byte	$00
	.byte	$F0
	.byte	$10
	.byte	$03
	.byte	$00
	.byte	$F8
	.byte	$10
	.byte	$19
	.byte	$00
	.byte	$F8
	.byte	$08
	.byte	$0A
	.byte	$00
	.byte	$F8
	.byte	$00
	.byte	$0B
	.byte	$00
	.byte	$00
	.byte	$00
	.byte	$0C
	.byte	$00
	.byte	$00
	.byte	$08
	.byte	$28
	.byte	$00
	.byte	$F8
	.byte	$18
	.byte	$1C
	.byte	$00
	.byte	$F8
	.byte	$20
	.byte	$1B
	.byte	$00
	.byte	$08
	.byte	$00
	.byte	$20
	.byte	$00
	.byte	$08
	.byte	$08
	.byte	$27
	.byte	$00
	.byte	$00
	.byte	$10
	.byte	$2C
	.byte	$00
	.byte	$00
	.byte	$18
	.byte	$2F
	.byte	$00
	.byte	$00
	.byte	$20
	.byte	$37
	.byte	$00
	.byte	$08
	.byte	$20
	.byte	$38
	.byte	$00
	.byte	$20
	.byte	$08
	.byte	$77
	.byte	$00
	.byte	$20
	.byte	$10
	.byte	$40
	.byte	$00
	.byte	$18
	.byte	$10
	.byte	$44
	.byte	$00
	.byte	$18
	.byte	$18
	.byte	$7D
	.byte	$00
	.byte	$18
	.byte	$20
	.byte	$48
	.byte	$00
	.byte	$18
	.byte	$28
	.byte	$4F
	.byte	$00
	.byte	$10
	.byte	$30
	.byte	$50
	.byte	$00
	.byte	$38
	.byte	$00
	.byte	$57
	.byte	$00
	.byte	$30
	.byte	$00
	.byte	$6C
	.byte	$00
	.byte	$28
	.byte	$00
	.byte	$6D
	.byte	$00
	.byte	$20
	.byte	$00
	.byte	$70
	.byte	$00
	.byte	$18
	.byte	$08
	.byte	$78
	.byte	$00
	.byte	$10
	.byte	$08
	.byte	$79
	.byte	$00
	.byte	$20
	.byte	$18
	.byte	$85
	.byte	$00
	.byte	$20
	.byte	$20
	.byte	$81
	.byte	$00
	.byte	$80
_marathon_man_alan40_data:
	.byte	$F0
	.byte	$20
	.byte	$01
	.byte	$00
	.byte	$F0
	.byte	$18
	.byte	$1F
	.byte	$00
	.byte	$F0
	.byte	$10
	.byte	$03
	.byte	$00
	.byte	$F8
	.byte	$10
	.byte	$19
	.byte	$00
	.byte	$F8
	.byte	$08
	.byte	$0A
	.byte	$00
	.byte	$F8
	.byte	$00
	.byte	$0B
	.byte	$00
	.byte	$00
	.byte	$00
	.byte	$0C
	.byte	$00
	.byte	$00
	.byte	$08
	.byte	$28
	.byte	$00
	.byte	$F8
	.byte	$18
	.byte	$1C
	.byte	$00
	.byte	$F8
	.byte	$20
	.byte	$1B
	.byte	$00
	.byte	$08
	.byte	$00
	.byte	$20
	.byte	$00
	.byte	$08
	.byte	$08
	.byte	$27
	.byte	$00
	.byte	$00
	.byte	$10
	.byte	$2C
	.byte	$00
	.byte	$00
	.byte	$18
	.byte	$2F
	.byte	$00
	.byte	$00
	.byte	$20
	.byte	$37
	.byte	$00
	.byte	$08
	.byte	$20
	.byte	$38
	.byte	$00
	.byte	$20
	.byte	$08
	.byte	$77
	.byte	$00
	.byte	$20
	.byte	$10
	.byte	$40
	.byte	$00
	.byte	$18
	.byte	$10
	.byte	$44
	.byte	$00
	.byte	$18
	.byte	$18
	.byte	$7D
	.byte	$00
	.byte	$18
	.byte	$20
	.byte	$48
	.byte	$00
	.byte	$18
	.byte	$28
	.byte	$4F
	.byte	$00
	.byte	$10
	.byte	$30
	.byte	$50
	.byte	$00
	.byte	$38
	.byte	$00
	.byte	$57
	.byte	$00
	.byte	$30
	.byte	$00
	.byte	$86
	.byte	$00
	.byte	$28
	.byte	$00
	.byte	$6D
	.byte	$00
	.byte	$20
	.byte	$00
	.byte	$70
	.byte	$00
	.byte	$18
	.byte	$08
	.byte	$78
	.byte	$00
	.byte	$10
	.byte	$08
	.byte	$79
	.byte	$00
	.byte	$20
	.byte	$18
	.byte	$85
	.byte	$00
	.byte	$20
	.byte	$20
	.byte	$81
	.byte	$00
	.byte	$80
_marathon_man_alan41_data:
	.byte	$F0
	.byte	$20
	.byte	$01
	.byte	$00
	.byte	$F0
	.byte	$18
	.byte	$1F
	.byte	$00
	.byte	$F0
	.byte	$10
	.byte	$03
	.byte	$00
	.byte	$F8
	.byte	$10
	.byte	$19
	.byte	$00
	.byte	$F8
	.byte	$08
	.byte	$0A
	.byte	$00
	.byte	$F8
	.byte	$00
	.byte	$0B
	.byte	$00
	.byte	$00
	.byte	$00
	.byte	$0C
	.byte	$00
	.byte	$00
	.byte	$08
	.byte	$28
	.byte	$00
	.byte	$F8
	.byte	$18
	.byte	$1C
	.byte	$00
	.byte	$F8
	.byte	$20
	.byte	$1B
	.byte	$00
	.byte	$08
	.byte	$00
	.byte	$20
	.byte	$00
	.byte	$08
	.byte	$08
	.byte	$27
	.byte	$00
	.byte	$00
	.byte	$10
	.byte	$2C
	.byte	$00
	.byte	$00
	.byte	$18
	.byte	$2F
	.byte	$00
	.byte	$00
	.byte	$20
	.byte	$37
	.byte	$00
	.byte	$08
	.byte	$20
	.byte	$38
	.byte	$00
	.byte	$20
	.byte	$08
	.byte	$77
	.byte	$00
	.byte	$20
	.byte	$10
	.byte	$40
	.byte	$00
	.byte	$18
	.byte	$10
	.byte	$44
	.byte	$00
	.byte	$18
	.byte	$18
	.byte	$7D
	.byte	$00
	.byte	$18
	.byte	$20
	.byte	$48
	.byte	$00
	.byte	$18
	.byte	$28
	.byte	$4F
	.byte	$00
	.byte	$10
	.byte	$30
	.byte	$50
	.byte	$00
	.byte	$38
	.byte	$00
	.byte	$57
	.byte	$00
	.byte	$30
	.byte	$00
	.byte	$86
	.byte	$00
	.byte	$28
	.byte	$00
	.byte	$6D
	.byte	$00
	.byte	$20
	.byte	$00
	.byte	$70
	.byte	$00
	.byte	$18
	.byte	$08
	.byte	$78
	.byte	$00
	.byte	$10
	.byte	$08
	.byte	$79
	.byte	$00
	.byte	$20
	.byte	$18
	.byte	$85
	.byte	$00
	.byte	$20
	.byte	$20
	.byte	$81
	.byte	$00
	.byte	$30
	.byte	$08
	.byte	$89
	.byte	$00
	.byte	$80
_marathon_man_alan42_data:
	.byte	$F0
	.byte	$20
	.byte	$01
	.byte	$00
	.byte	$F0
	.byte	$18
	.byte	$1F
	.byte	$00
	.byte	$F0
	.byte	$10
	.byte	$03
	.byte	$00
	.byte	$F8
	.byte	$10
	.byte	$19
	.byte	$00
	.byte	$F8
	.byte	$08
	.byte	$0A
	.byte	$00
	.byte	$F8
	.byte	$00
	.byte	$0B
	.byte	$00
	.byte	$00
	.byte	$00
	.byte	$0C
	.byte	$00
	.byte	$00
	.byte	$08
	.byte	$28
	.byte	$00
	.byte	$F8
	.byte	$18
	.byte	$1C
	.byte	$00
	.byte	$F8
	.byte	$20
	.byte	$1B
	.byte	$00
	.byte	$08
	.byte	$00
	.byte	$20
	.byte	$00
	.byte	$08
	.byte	$08
	.byte	$27
	.byte	$00
	.byte	$00
	.byte	$10
	.byte	$2C
	.byte	$00
	.byte	$00
	.byte	$18
	.byte	$2F
	.byte	$00
	.byte	$00
	.byte	$20
	.byte	$37
	.byte	$00
	.byte	$08
	.byte	$20
	.byte	$38
	.byte	$00
	.byte	$20
	.byte	$08
	.byte	$77
	.byte	$00
	.byte	$20
	.byte	$10
	.byte	$40
	.byte	$00
	.byte	$18
	.byte	$10
	.byte	$44
	.byte	$00
	.byte	$18
	.byte	$18
	.byte	$7D
	.byte	$00
	.byte	$18
	.byte	$20
	.byte	$48
	.byte	$00
	.byte	$18
	.byte	$28
	.byte	$4F
	.byte	$00
	.byte	$10
	.byte	$30
	.byte	$50
	.byte	$00
	.byte	$38
	.byte	$00
	.byte	$57
	.byte	$00
	.byte	$30
	.byte	$00
	.byte	$86
	.byte	$00
	.byte	$28
	.byte	$00
	.byte	$6D
	.byte	$00
	.byte	$20
	.byte	$00
	.byte	$70
	.byte	$00
	.byte	$18
	.byte	$08
	.byte	$78
	.byte	$00
	.byte	$10
	.byte	$08
	.byte	$79
	.byte	$00
	.byte	$20
	.byte	$18
	.byte	$85
	.byte	$00
	.byte	$20
	.byte	$20
	.byte	$81
	.byte	$00
	.byte	$30
	.byte	$08
	.byte	$89
	.byte	$00
	.byte	$30
	.byte	$10
	.byte	$03
	.byte	$C1
	.byte	$80
_marathon_man_alan43_data:
	.byte	$F0
	.byte	$20
	.byte	$01
	.byte	$00
	.byte	$F0
	.byte	$18
	.byte	$1F
	.byte	$00
	.byte	$F0
	.byte	$10
	.byte	$03
	.byte	$00
	.byte	$F8
	.byte	$10
	.byte	$19
	.byte	$00
	.byte	$F8
	.byte	$08
	.byte	$0A
	.byte	$00
	.byte	$F8
	.byte	$00
	.byte	$0B
	.byte	$00
	.byte	$00
	.byte	$00
	.byte	$0C
	.byte	$00
	.byte	$00
	.byte	$08
	.byte	$28
	.byte	$00
	.byte	$F8
	.byte	$18
	.byte	$1C
	.byte	$00
	.byte	$F8
	.byte	$20
	.byte	$1B
	.byte	$00
	.byte	$08
	.byte	$00
	.byte	$20
	.byte	$00
	.byte	$08
	.byte	$08
	.byte	$27
	.byte	$00
	.byte	$00
	.byte	$10
	.byte	$2C
	.byte	$00
	.byte	$00
	.byte	$18
	.byte	$2F
	.byte	$00
	.byte	$00
	.byte	$20
	.byte	$37
	.byte	$00
	.byte	$08
	.byte	$20
	.byte	$38
	.byte	$00
	.byte	$20
	.byte	$08
	.byte	$77
	.byte	$00
	.byte	$20
	.byte	$10
	.byte	$40
	.byte	$00
	.byte	$18
	.byte	$10
	.byte	$44
	.byte	$00
	.byte	$18
	.byte	$18
	.byte	$7D
	.byte	$00
	.byte	$18
	.byte	$20
	.byte	$48
	.byte	$00
	.byte	$18
	.byte	$28
	.byte	$4F
	.byte	$00
	.byte	$10
	.byte	$30
	.byte	$50
	.byte	$00
	.byte	$38
	.byte	$00
	.byte	$57
	.byte	$00
	.byte	$30
	.byte	$00
	.byte	$86
	.byte	$00
	.byte	$28
	.byte	$00
	.byte	$6D
	.byte	$00
	.byte	$20
	.byte	$00
	.byte	$70
	.byte	$00
	.byte	$18
	.byte	$08
	.byte	$78
	.byte	$00
	.byte	$10
	.byte	$08
	.byte	$79
	.byte	$00
	.byte	$20
	.byte	$18
	.byte	$85
	.byte	$00
	.byte	$20
	.byte	$20
	.byte	$81
	.byte	$00
	.byte	$30
	.byte	$08
	.byte	$89
	.byte	$00
	.byte	$30
	.byte	$10
	.byte	$03
	.byte	$C1
	.byte	$28
	.byte	$10
	.byte	$8D
	.byte	$00
	.byte	$80
_marathon_man_alan44_data:
	.byte	$F0
	.byte	$20
	.byte	$01
	.byte	$00
	.byte	$F0
	.byte	$18
	.byte	$1F
	.byte	$00
	.byte	$F0
	.byte	$10
	.byte	$03
	.byte	$00
	.byte	$F8
	.byte	$10
	.byte	$19
	.byte	$00
	.byte	$F8
	.byte	$08
	.byte	$0A
	.byte	$00
	.byte	$F8
	.byte	$00
	.byte	$0B
	.byte	$00
	.byte	$00
	.byte	$00
	.byte	$0C
	.byte	$00
	.byte	$00
	.byte	$08
	.byte	$28
	.byte	$00
	.byte	$F8
	.byte	$18
	.byte	$1C
	.byte	$00
	.byte	$F8
	.byte	$20
	.byte	$1B
	.byte	$00
	.byte	$08
	.byte	$00
	.byte	$20
	.byte	$00
	.byte	$08
	.byte	$08
	.byte	$27
	.byte	$00
	.byte	$00
	.byte	$10
	.byte	$2C
	.byte	$00
	.byte	$00
	.byte	$18
	.byte	$2F
	.byte	$00
	.byte	$00
	.byte	$20
	.byte	$37
	.byte	$00
	.byte	$08
	.byte	$20
	.byte	$38
	.byte	$00
	.byte	$20
	.byte	$08
	.byte	$77
	.byte	$00
	.byte	$20
	.byte	$10
	.byte	$40
	.byte	$00
	.byte	$18
	.byte	$10
	.byte	$44
	.byte	$00
	.byte	$18
	.byte	$18
	.byte	$7D
	.byte	$00
	.byte	$18
	.byte	$20
	.byte	$48
	.byte	$00
	.byte	$18
	.byte	$28
	.byte	$4F
	.byte	$00
	.byte	$10
	.byte	$30
	.byte	$50
	.byte	$00
	.byte	$38
	.byte	$00
	.byte	$57
	.byte	$00
	.byte	$30
	.byte	$00
	.byte	$86
	.byte	$00
	.byte	$28
	.byte	$00
	.byte	$6D
	.byte	$00
	.byte	$20
	.byte	$00
	.byte	$70
	.byte	$00
	.byte	$18
	.byte	$08
	.byte	$78
	.byte	$00
	.byte	$10
	.byte	$08
	.byte	$79
	.byte	$00
	.byte	$20
	.byte	$18
	.byte	$85
	.byte	$00
	.byte	$20
	.byte	$20
	.byte	$81
	.byte	$00
	.byte	$30
	.byte	$08
	.byte	$89
	.byte	$00
	.byte	$30
	.byte	$10
	.byte	$03
	.byte	$C1
	.byte	$28
	.byte	$10
	.byte	$8D
	.byte	$00
	.byte	$28
	.byte	$18
	.byte	$99
	.byte	$00
	.byte	$80
_marathon_man_alan45_data:
	.byte	$F0
	.byte	$20
	.byte	$01
	.byte	$00
	.byte	$F0
	.byte	$18
	.byte	$1F
	.byte	$00
	.byte	$F0
	.byte	$10
	.byte	$03
	.byte	$00
	.byte	$F8
	.byte	$10
	.byte	$19
	.byte	$00
	.byte	$F8
	.byte	$08
	.byte	$0A
	.byte	$00
	.byte	$F8
	.byte	$00
	.byte	$0B
	.byte	$00
	.byte	$00
	.byte	$00
	.byte	$0C
	.byte	$00
	.byte	$00
	.byte	$08
	.byte	$28
	.byte	$00
	.byte	$F8
	.byte	$18
	.byte	$1C
	.byte	$00
	.byte	$F8
	.byte	$20
	.byte	$1B
	.byte	$00
	.byte	$08
	.byte	$00
	.byte	$20
	.byte	$00
	.byte	$08
	.byte	$08
	.byte	$27
	.byte	$00
	.byte	$00
	.byte	$10
	.byte	$2C
	.byte	$00
	.byte	$00
	.byte	$18
	.byte	$2F
	.byte	$00
	.byte	$00
	.byte	$20
	.byte	$37
	.byte	$00
	.byte	$08
	.byte	$20
	.byte	$38
	.byte	$00
	.byte	$20
	.byte	$08
	.byte	$77
	.byte	$00
	.byte	$20
	.byte	$10
	.byte	$40
	.byte	$00
	.byte	$18
	.byte	$10
	.byte	$44
	.byte	$00
	.byte	$18
	.byte	$18
	.byte	$7D
	.byte	$00
	.byte	$18
	.byte	$20
	.byte	$48
	.byte	$00
	.byte	$18
	.byte	$28
	.byte	$4F
	.byte	$00
	.byte	$10
	.byte	$30
	.byte	$50
	.byte	$00
	.byte	$38
	.byte	$00
	.byte	$57
	.byte	$00
	.byte	$30
	.byte	$00
	.byte	$86
	.byte	$00
	.byte	$28
	.byte	$00
	.byte	$6D
	.byte	$00
	.byte	$20
	.byte	$00
	.byte	$70
	.byte	$00
	.byte	$18
	.byte	$08
	.byte	$78
	.byte	$00
	.byte	$10
	.byte	$08
	.byte	$79
	.byte	$00
	.byte	$20
	.byte	$18
	.byte	$85
	.byte	$00
	.byte	$20
	.byte	$20
	.byte	$81
	.byte	$00
	.byte	$30
	.byte	$08
	.byte	$89
	.byte	$00
	.byte	$30
	.byte	$10
	.byte	$03
	.byte	$C1
	.byte	$28
	.byte	$10
	.byte	$8D
	.byte	$00
	.byte	$28
	.byte	$18
	.byte	$99
	.byte	$00
	.byte	$28
	.byte	$20
	.byte	$A3
	.byte	$00
	.byte	$80
_marathon_man_alan46_data:
	.byte	$F0
	.byte	$20
	.byte	$01
	.byte	$00
	.byte	$F0
	.byte	$18
	.byte	$1F
	.byte	$00
	.byte	$F0
	.byte	$10
	.byte	$03
	.byte	$00
	.byte	$F8
	.byte	$10
	.byte	$19
	.byte	$00
	.byte	$F8
	.byte	$08
	.byte	$0A
	.byte	$00
	.byte	$F8
	.byte	$00
	.byte	$0B
	.byte	$00
	.byte	$00
	.byte	$00
	.byte	$0C
	.byte	$00
	.byte	$00
	.byte	$08
	.byte	$28
	.byte	$00
	.byte	$F8
	.byte	$18
	.byte	$1C
	.byte	$00
	.byte	$F8
	.byte	$20
	.byte	$1B
	.byte	$00
	.byte	$08
	.byte	$00
	.byte	$20
	.byte	$00
	.byte	$08
	.byte	$08
	.byte	$27
	.byte	$00
	.byte	$00
	.byte	$10
	.byte	$2C
	.byte	$00
	.byte	$00
	.byte	$18
	.byte	$2F
	.byte	$00
	.byte	$00
	.byte	$20
	.byte	$37
	.byte	$00
	.byte	$08
	.byte	$20
	.byte	$38
	.byte	$00
	.byte	$20
	.byte	$08
	.byte	$77
	.byte	$00
	.byte	$20
	.byte	$10
	.byte	$40
	.byte	$00
	.byte	$18
	.byte	$10
	.byte	$44
	.byte	$00
	.byte	$18
	.byte	$18
	.byte	$7D
	.byte	$00
	.byte	$18
	.byte	$20
	.byte	$48
	.byte	$00
	.byte	$18
	.byte	$28
	.byte	$4F
	.byte	$00
	.byte	$10
	.byte	$30
	.byte	$50
	.byte	$00
	.byte	$38
	.byte	$00
	.byte	$57
	.byte	$00
	.byte	$30
	.byte	$00
	.byte	$86
	.byte	$00
	.byte	$28
	.byte	$00
	.byte	$6D
	.byte	$00
	.byte	$20
	.byte	$00
	.byte	$70
	.byte	$00
	.byte	$18
	.byte	$08
	.byte	$78
	.byte	$00
	.byte	$10
	.byte	$08
	.byte	$79
	.byte	$00
	.byte	$20
	.byte	$18
	.byte	$85
	.byte	$00
	.byte	$20
	.byte	$20
	.byte	$81
	.byte	$00
	.byte	$30
	.byte	$08
	.byte	$89
	.byte	$00
	.byte	$30
	.byte	$10
	.byte	$03
	.byte	$C1
	.byte	$28
	.byte	$10
	.byte	$8D
	.byte	$00
	.byte	$28
	.byte	$18
	.byte	$A4
	.byte	$00
	.byte	$28
	.byte	$20
	.byte	$A3
	.byte	$00
	.byte	$80
_marathon_man_alan47_data:
	.byte	$F0
	.byte	$20
	.byte	$01
	.byte	$00
	.byte	$F0
	.byte	$18
	.byte	$1F
	.byte	$00
	.byte	$F0
	.byte	$10
	.byte	$03
	.byte	$00
	.byte	$F8
	.byte	$10
	.byte	$19
	.byte	$00
	.byte	$F8
	.byte	$08
	.byte	$0A
	.byte	$00
	.byte	$F8
	.byte	$00
	.byte	$0B
	.byte	$00
	.byte	$00
	.byte	$00
	.byte	$0C
	.byte	$00
	.byte	$00
	.byte	$08
	.byte	$28
	.byte	$00
	.byte	$F8
	.byte	$18
	.byte	$1C
	.byte	$00
	.byte	$F8
	.byte	$20
	.byte	$1B
	.byte	$00
	.byte	$08
	.byte	$00
	.byte	$20
	.byte	$00
	.byte	$08
	.byte	$08
	.byte	$27
	.byte	$00
	.byte	$00
	.byte	$10
	.byte	$2C
	.byte	$00
	.byte	$00
	.byte	$18
	.byte	$2F
	.byte	$00
	.byte	$00
	.byte	$20
	.byte	$37
	.byte	$00
	.byte	$08
	.byte	$20
	.byte	$38
	.byte	$00
	.byte	$20
	.byte	$08
	.byte	$77
	.byte	$00
	.byte	$20
	.byte	$10
	.byte	$40
	.byte	$00
	.byte	$18
	.byte	$10
	.byte	$44
	.byte	$00
	.byte	$18
	.byte	$18
	.byte	$7D
	.byte	$00
	.byte	$18
	.byte	$20
	.byte	$48
	.byte	$00
	.byte	$18
	.byte	$28
	.byte	$4F
	.byte	$00
	.byte	$10
	.byte	$30
	.byte	$50
	.byte	$00
	.byte	$38
	.byte	$00
	.byte	$57
	.byte	$00
	.byte	$30
	.byte	$00
	.byte	$86
	.byte	$00
	.byte	$28
	.byte	$00
	.byte	$6D
	.byte	$00
	.byte	$20
	.byte	$00
	.byte	$70
	.byte	$00
	.byte	$18
	.byte	$08
	.byte	$78
	.byte	$00
	.byte	$10
	.byte	$08
	.byte	$79
	.byte	$00
	.byte	$20
	.byte	$18
	.byte	$85
	.byte	$00
	.byte	$20
	.byte	$20
	.byte	$81
	.byte	$00
	.byte	$30
	.byte	$08
	.byte	$89
	.byte	$00
	.byte	$30
	.byte	$10
	.byte	$03
	.byte	$C1
	.byte	$28
	.byte	$10
	.byte	$8D
	.byte	$00
	.byte	$28
	.byte	$18
	.byte	$A4
	.byte	$00
	.byte	$28
	.byte	$20
	.byte	$A3
	.byte	$00
	.byte	$30
	.byte	$18
	.byte	$A9
	.byte	$00
	.byte	$80
_marathon_man_alan48_data:
	.byte	$F0
	.byte	$20
	.byte	$01
	.byte	$00
	.byte	$F0
	.byte	$18
	.byte	$1F
	.byte	$00
	.byte	$F0
	.byte	$10
	.byte	$03
	.byte	$00
	.byte	$F8
	.byte	$10
	.byte	$19
	.byte	$00
	.byte	$F8
	.byte	$08
	.byte	$0A
	.byte	$00
	.byte	$F8
	.byte	$00
	.byte	$0B
	.byte	$00
	.byte	$00
	.byte	$00
	.byte	$0C
	.byte	$00
	.byte	$00
	.byte	$08
	.byte	$28
	.byte	$00
	.byte	$F8
	.byte	$18
	.byte	$1C
	.byte	$00
	.byte	$F8
	.byte	$20
	.byte	$1B
	.byte	$00
	.byte	$08
	.byte	$00
	.byte	$20
	.byte	$00
	.byte	$08
	.byte	$08
	.byte	$27
	.byte	$00
	.byte	$00
	.byte	$10
	.byte	$2C
	.byte	$00
	.byte	$00
	.byte	$18
	.byte	$2F
	.byte	$00
	.byte	$00
	.byte	$20
	.byte	$37
	.byte	$00
	.byte	$08
	.byte	$20
	.byte	$38
	.byte	$00
	.byte	$20
	.byte	$08
	.byte	$77
	.byte	$00
	.byte	$20
	.byte	$10
	.byte	$40
	.byte	$00
	.byte	$18
	.byte	$10
	.byte	$44
	.byte	$00
	.byte	$18
	.byte	$18
	.byte	$7D
	.byte	$00
	.byte	$18
	.byte	$20
	.byte	$48
	.byte	$00
	.byte	$18
	.byte	$28
	.byte	$4F
	.byte	$00
	.byte	$10
	.byte	$30
	.byte	$50
	.byte	$00
	.byte	$38
	.byte	$00
	.byte	$57
	.byte	$00
	.byte	$30
	.byte	$00
	.byte	$86
	.byte	$00
	.byte	$28
	.byte	$00
	.byte	$6D
	.byte	$00
	.byte	$20
	.byte	$00
	.byte	$70
	.byte	$00
	.byte	$18
	.byte	$08
	.byte	$78
	.byte	$00
	.byte	$10
	.byte	$08
	.byte	$79
	.byte	$00
	.byte	$20
	.byte	$18
	.byte	$85
	.byte	$00
	.byte	$20
	.byte	$20
	.byte	$81
	.byte	$00
	.byte	$30
	.byte	$08
	.byte	$89
	.byte	$00
	.byte	$30
	.byte	$10
	.byte	$03
	.byte	$C1
	.byte	$28
	.byte	$10
	.byte	$8D
	.byte	$00
	.byte	$28
	.byte	$18
	.byte	$A4
	.byte	$00
	.byte	$28
	.byte	$20
	.byte	$A3
	.byte	$00
	.byte	$30
	.byte	$18
	.byte	$AC
	.byte	$00
	.byte	$80
_marathon_man_alan49_data:
	.byte	$F0
	.byte	$20
	.byte	$01
	.byte	$00
	.byte	$F0
	.byte	$18
	.byte	$1F
	.byte	$00
	.byte	$F0
	.byte	$10
	.byte	$03
	.byte	$00
	.byte	$F8
	.byte	$10
	.byte	$19
	.byte	$00
	.byte	$F8
	.byte	$08
	.byte	$0A
	.byte	$00
	.byte	$F8
	.byte	$00
	.byte	$0B
	.byte	$00
	.byte	$00
	.byte	$00
	.byte	$0C
	.byte	$00
	.byte	$00
	.byte	$08
	.byte	$28
	.byte	$00
	.byte	$F8
	.byte	$18
	.byte	$1C
	.byte	$00
	.byte	$F8
	.byte	$20
	.byte	$1B
	.byte	$00
	.byte	$08
	.byte	$00
	.byte	$20
	.byte	$00
	.byte	$08
	.byte	$08
	.byte	$27
	.byte	$00
	.byte	$00
	.byte	$10
	.byte	$2C
	.byte	$00
	.byte	$00
	.byte	$18
	.byte	$2F
	.byte	$00
	.byte	$00
	.byte	$20
	.byte	$37
	.byte	$00
	.byte	$08
	.byte	$20
	.byte	$38
	.byte	$00
	.byte	$20
	.byte	$08
	.byte	$77
	.byte	$00
	.byte	$20
	.byte	$10
	.byte	$40
	.byte	$00
	.byte	$18
	.byte	$10
	.byte	$44
	.byte	$00
	.byte	$18
	.byte	$18
	.byte	$7D
	.byte	$00
	.byte	$18
	.byte	$20
	.byte	$48
	.byte	$00
	.byte	$18
	.byte	$28
	.byte	$4F
	.byte	$00
	.byte	$10
	.byte	$30
	.byte	$50
	.byte	$00
	.byte	$38
	.byte	$00
	.byte	$57
	.byte	$00
	.byte	$30
	.byte	$00
	.byte	$86
	.byte	$00
	.byte	$28
	.byte	$00
	.byte	$6D
	.byte	$00
	.byte	$20
	.byte	$00
	.byte	$70
	.byte	$00
	.byte	$18
	.byte	$08
	.byte	$78
	.byte	$00
	.byte	$10
	.byte	$08
	.byte	$79
	.byte	$00
	.byte	$20
	.byte	$18
	.byte	$85
	.byte	$00
	.byte	$20
	.byte	$20
	.byte	$81
	.byte	$00
	.byte	$30
	.byte	$08
	.byte	$89
	.byte	$00
	.byte	$30
	.byte	$10
	.byte	$03
	.byte	$C1
	.byte	$28
	.byte	$10
	.byte	$8D
	.byte	$00
	.byte	$28
	.byte	$18
	.byte	$A4
	.byte	$00
	.byte	$28
	.byte	$20
	.byte	$A3
	.byte	$00
	.byte	$30
	.byte	$18
	.byte	$AC
	.byte	$00
	.byte	$38
	.byte	$18
	.byte	$B3
	.byte	$00
	.byte	$80
_marathon_man_alan50_data:
	.byte	$F0
	.byte	$20
	.byte	$01
	.byte	$00
	.byte	$F0
	.byte	$18
	.byte	$1F
	.byte	$00
	.byte	$F0
	.byte	$10
	.byte	$03
	.byte	$00
	.byte	$F8
	.byte	$10
	.byte	$19
	.byte	$00
	.byte	$F8
	.byte	$08
	.byte	$0A
	.byte	$00
	.byte	$F8
	.byte	$00
	.byte	$0B
	.byte	$00
	.byte	$00
	.byte	$00
	.byte	$0C
	.byte	$00
	.byte	$00
	.byte	$08
	.byte	$28
	.byte	$00
	.byte	$F8
	.byte	$18
	.byte	$1C
	.byte	$00
	.byte	$F8
	.byte	$20
	.byte	$1B
	.byte	$00
	.byte	$08
	.byte	$00
	.byte	$20
	.byte	$00
	.byte	$08
	.byte	$08
	.byte	$27
	.byte	$00
	.byte	$00
	.byte	$10
	.byte	$2C
	.byte	$00
	.byte	$00
	.byte	$18
	.byte	$2F
	.byte	$00
	.byte	$00
	.byte	$20
	.byte	$37
	.byte	$00
	.byte	$08
	.byte	$20
	.byte	$38
	.byte	$00
	.byte	$20
	.byte	$08
	.byte	$77
	.byte	$00
	.byte	$20
	.byte	$10
	.byte	$40
	.byte	$00
	.byte	$18
	.byte	$10
	.byte	$44
	.byte	$00
	.byte	$18
	.byte	$18
	.byte	$7D
	.byte	$00
	.byte	$18
	.byte	$20
	.byte	$48
	.byte	$00
	.byte	$18
	.byte	$28
	.byte	$4F
	.byte	$00
	.byte	$10
	.byte	$30
	.byte	$50
	.byte	$00
	.byte	$38
	.byte	$00
	.byte	$57
	.byte	$00
	.byte	$30
	.byte	$00
	.byte	$86
	.byte	$00
	.byte	$28
	.byte	$00
	.byte	$6D
	.byte	$00
	.byte	$20
	.byte	$00
	.byte	$70
	.byte	$00
	.byte	$18
	.byte	$08
	.byte	$78
	.byte	$00
	.byte	$10
	.byte	$08
	.byte	$79
	.byte	$00
	.byte	$20
	.byte	$18
	.byte	$85
	.byte	$00
	.byte	$20
	.byte	$20
	.byte	$81
	.byte	$00
	.byte	$30
	.byte	$08
	.byte	$89
	.byte	$00
	.byte	$30
	.byte	$10
	.byte	$03
	.byte	$C1
	.byte	$28
	.byte	$10
	.byte	$8D
	.byte	$00
	.byte	$28
	.byte	$18
	.byte	$A4
	.byte	$00
	.byte	$28
	.byte	$20
	.byte	$A3
	.byte	$00
	.byte	$30
	.byte	$18
	.byte	$AC
	.byte	$00
	.byte	$38
	.byte	$18
	.byte	$B3
	.byte	$00
	.byte	$38
	.byte	$10
	.byte	$BC
	.byte	$00
	.byte	$80
_marathon_man_alan51_data:
	.byte	$F0
	.byte	$20
	.byte	$01
	.byte	$00
	.byte	$F0
	.byte	$18
	.byte	$1F
	.byte	$00
	.byte	$F0
	.byte	$10
	.byte	$03
	.byte	$00
	.byte	$F8
	.byte	$10
	.byte	$19
	.byte	$00
	.byte	$F8
	.byte	$08
	.byte	$0A
	.byte	$00
	.byte	$F8
	.byte	$00
	.byte	$0B
	.byte	$00
	.byte	$00
	.byte	$00
	.byte	$0C
	.byte	$00
	.byte	$00
	.byte	$08
	.byte	$28
	.byte	$00
	.byte	$F8
	.byte	$18
	.byte	$1C
	.byte	$00
	.byte	$F8
	.byte	$20
	.byte	$1B
	.byte	$00
	.byte	$08
	.byte	$00
	.byte	$20
	.byte	$00
	.byte	$08
	.byte	$08
	.byte	$27
	.byte	$00
	.byte	$00
	.byte	$10
	.byte	$2C
	.byte	$00
	.byte	$00
	.byte	$18
	.byte	$2F
	.byte	$00
	.byte	$00
	.byte	$20
	.byte	$37
	.byte	$00
	.byte	$08
	.byte	$20
	.byte	$38
	.byte	$00
	.byte	$20
	.byte	$08
	.byte	$77
	.byte	$00
	.byte	$20
	.byte	$10
	.byte	$40
	.byte	$00
	.byte	$18
	.byte	$10
	.byte	$44
	.byte	$00
	.byte	$18
	.byte	$18
	.byte	$7D
	.byte	$00
	.byte	$18
	.byte	$20
	.byte	$48
	.byte	$00
	.byte	$18
	.byte	$28
	.byte	$4F
	.byte	$00
	.byte	$10
	.byte	$30
	.byte	$50
	.byte	$00
	.byte	$38
	.byte	$00
	.byte	$57
	.byte	$00
	.byte	$30
	.byte	$00
	.byte	$86
	.byte	$00
	.byte	$28
	.byte	$00
	.byte	$6D
	.byte	$00
	.byte	$20
	.byte	$00
	.byte	$70
	.byte	$00
	.byte	$18
	.byte	$08
	.byte	$78
	.byte	$00
	.byte	$10
	.byte	$08
	.byte	$79
	.byte	$00
	.byte	$20
	.byte	$18
	.byte	$85
	.byte	$00
	.byte	$20
	.byte	$20
	.byte	$81
	.byte	$00
	.byte	$30
	.byte	$08
	.byte	$89
	.byte	$00
	.byte	$30
	.byte	$10
	.byte	$03
	.byte	$C1
	.byte	$28
	.byte	$10
	.byte	$8D
	.byte	$00
	.byte	$28
	.byte	$18
	.byte	$A4
	.byte	$00
	.byte	$28
	.byte	$20
	.byte	$A3
	.byte	$00
	.byte	$30
	.byte	$18
	.byte	$AC
	.byte	$00
	.byte	$38
	.byte	$18
	.byte	$C0
	.byte	$00
	.byte	$38
	.byte	$10
	.byte	$BC
	.byte	$00
	.byte	$80
_marathon_man_alan52_data:
	.byte	$F0
	.byte	$20
	.byte	$01
	.byte	$00
	.byte	$F0
	.byte	$18
	.byte	$1F
	.byte	$00
	.byte	$F0
	.byte	$10
	.byte	$03
	.byte	$00
	.byte	$F8
	.byte	$10
	.byte	$19
	.byte	$00
	.byte	$F8
	.byte	$08
	.byte	$0A
	.byte	$00
	.byte	$F8
	.byte	$00
	.byte	$0B
	.byte	$00
	.byte	$00
	.byte	$00
	.byte	$0C
	.byte	$00
	.byte	$00
	.byte	$08
	.byte	$28
	.byte	$00
	.byte	$F8
	.byte	$18
	.byte	$1C
	.byte	$00
	.byte	$F8
	.byte	$20
	.byte	$1B
	.byte	$00
	.byte	$08
	.byte	$00
	.byte	$20
	.byte	$00
	.byte	$08
	.byte	$08
	.byte	$27
	.byte	$00
	.byte	$00
	.byte	$10
	.byte	$2C
	.byte	$00
	.byte	$00
	.byte	$18
	.byte	$2F
	.byte	$00
	.byte	$00
	.byte	$20
	.byte	$37
	.byte	$00
	.byte	$08
	.byte	$20
	.byte	$38
	.byte	$00
	.byte	$20
	.byte	$08
	.byte	$77
	.byte	$00
	.byte	$20
	.byte	$10
	.byte	$40
	.byte	$00
	.byte	$18
	.byte	$10
	.byte	$44
	.byte	$00
	.byte	$18
	.byte	$18
	.byte	$7D
	.byte	$00
	.byte	$18
	.byte	$20
	.byte	$48
	.byte	$00
	.byte	$18
	.byte	$28
	.byte	$4F
	.byte	$00
	.byte	$10
	.byte	$30
	.byte	$50
	.byte	$00
	.byte	$38
	.byte	$00
	.byte	$57
	.byte	$00
	.byte	$30
	.byte	$00
	.byte	$86
	.byte	$00
	.byte	$28
	.byte	$00
	.byte	$6D
	.byte	$00
	.byte	$20
	.byte	$00
	.byte	$70
	.byte	$00
	.byte	$18
	.byte	$08
	.byte	$78
	.byte	$00
	.byte	$10
	.byte	$08
	.byte	$79
	.byte	$00
	.byte	$20
	.byte	$18
	.byte	$85
	.byte	$00
	.byte	$20
	.byte	$20
	.byte	$81
	.byte	$00
	.byte	$30
	.byte	$08
	.byte	$89
	.byte	$00
	.byte	$30
	.byte	$10
	.byte	$03
	.byte	$C1
	.byte	$28
	.byte	$10
	.byte	$8D
	.byte	$00
	.byte	$28
	.byte	$18
	.byte	$A4
	.byte	$00
	.byte	$28
	.byte	$20
	.byte	$A3
	.byte	$00
	.byte	$30
	.byte	$18
	.byte	$C3
	.byte	$00
	.byte	$38
	.byte	$18
	.byte	$C0
	.byte	$00
	.byte	$38
	.byte	$10
	.byte	$BC
	.byte	$00
	.byte	$80
_marathon_man_alan53_data:
	.byte	$F0
	.byte	$20
	.byte	$01
	.byte	$00
	.byte	$F0
	.byte	$18
	.byte	$1F
	.byte	$00
	.byte	$F0
	.byte	$10
	.byte	$03
	.byte	$00
	.byte	$F8
	.byte	$10
	.byte	$19
	.byte	$00
	.byte	$F8
	.byte	$08
	.byte	$0A
	.byte	$00
	.byte	$F8
	.byte	$00
	.byte	$0B
	.byte	$00
	.byte	$00
	.byte	$00
	.byte	$0C
	.byte	$00
	.byte	$00
	.byte	$08
	.byte	$28
	.byte	$00
	.byte	$F8
	.byte	$18
	.byte	$1C
	.byte	$00
	.byte	$F8
	.byte	$20
	.byte	$1B
	.byte	$00
	.byte	$08
	.byte	$00
	.byte	$20
	.byte	$00
	.byte	$08
	.byte	$08
	.byte	$27
	.byte	$00
	.byte	$00
	.byte	$10
	.byte	$2C
	.byte	$00
	.byte	$00
	.byte	$18
	.byte	$2F
	.byte	$00
	.byte	$00
	.byte	$20
	.byte	$37
	.byte	$00
	.byte	$08
	.byte	$20
	.byte	$38
	.byte	$00
	.byte	$20
	.byte	$08
	.byte	$77
	.byte	$00
	.byte	$20
	.byte	$10
	.byte	$40
	.byte	$00
	.byte	$18
	.byte	$10
	.byte	$44
	.byte	$00
	.byte	$18
	.byte	$18
	.byte	$7D
	.byte	$00
	.byte	$18
	.byte	$20
	.byte	$48
	.byte	$00
	.byte	$18
	.byte	$28
	.byte	$4F
	.byte	$00
	.byte	$10
	.byte	$30
	.byte	$50
	.byte	$00
	.byte	$38
	.byte	$00
	.byte	$57
	.byte	$00
	.byte	$30
	.byte	$00
	.byte	$86
	.byte	$00
	.byte	$28
	.byte	$00
	.byte	$6D
	.byte	$00
	.byte	$20
	.byte	$00
	.byte	$70
	.byte	$00
	.byte	$18
	.byte	$08
	.byte	$78
	.byte	$00
	.byte	$10
	.byte	$08
	.byte	$79
	.byte	$00
	.byte	$20
	.byte	$18
	.byte	$85
	.byte	$00
	.byte	$20
	.byte	$20
	.byte	$81
	.byte	$00
	.byte	$30
	.byte	$08
	.byte	$89
	.byte	$00
	.byte	$30
	.byte	$10
	.byte	$03
	.byte	$C1
	.byte	$28
	.byte	$10
	.byte	$8D
	.byte	$00
	.byte	$28
	.byte	$18
	.byte	$A4
	.byte	$00
	.byte	$28
	.byte	$20
	.byte	$A3
	.byte	$00
	.byte	$30
	.byte	$18
	.byte	$C3
	.byte	$00
	.byte	$38
	.byte	$18
	.byte	$C0
	.byte	$00
	.byte	$38
	.byte	$10
	.byte	$BC
	.byte	$00
	.byte	$30
	.byte	$20
	.byte	$C4
	.byte	$00
	.byte	$80
_marathon_man_alan54_data:
	.byte	$F0
	.byte	$20
	.byte	$01
	.byte	$00
	.byte	$F0
	.byte	$18
	.byte	$1F
	.byte	$00
	.byte	$F0
	.byte	$10
	.byte	$03
	.byte	$00
	.byte	$F8
	.byte	$10
	.byte	$19
	.byte	$00
	.byte	$F8
	.byte	$08
	.byte	$0A
	.byte	$00
	.byte	$F8
	.byte	$00
	.byte	$0B
	.byte	$00
	.byte	$00
	.byte	$00
	.byte	$0C
	.byte	$00
	.byte	$00
	.byte	$08
	.byte	$28
	.byte	$00
	.byte	$F8
	.byte	$18
	.byte	$1C
	.byte	$00
	.byte	$F8
	.byte	$20
	.byte	$1B
	.byte	$00
	.byte	$08
	.byte	$00
	.byte	$20
	.byte	$00
	.byte	$08
	.byte	$08
	.byte	$27
	.byte	$00
	.byte	$00
	.byte	$10
	.byte	$2C
	.byte	$00
	.byte	$00
	.byte	$18
	.byte	$2F
	.byte	$00
	.byte	$00
	.byte	$20
	.byte	$37
	.byte	$00
	.byte	$08
	.byte	$20
	.byte	$38
	.byte	$00
	.byte	$20
	.byte	$08
	.byte	$77
	.byte	$00
	.byte	$20
	.byte	$10
	.byte	$40
	.byte	$00
	.byte	$18
	.byte	$10
	.byte	$44
	.byte	$00
	.byte	$18
	.byte	$18
	.byte	$7D
	.byte	$00
	.byte	$18
	.byte	$20
	.byte	$48
	.byte	$00
	.byte	$18
	.byte	$28
	.byte	$4F
	.byte	$00
	.byte	$10
	.byte	$30
	.byte	$50
	.byte	$00
	.byte	$38
	.byte	$00
	.byte	$57
	.byte	$00
	.byte	$30
	.byte	$00
	.byte	$86
	.byte	$00
	.byte	$28
	.byte	$00
	.byte	$6D
	.byte	$00
	.byte	$20
	.byte	$00
	.byte	$70
	.byte	$00
	.byte	$18
	.byte	$08
	.byte	$78
	.byte	$00
	.byte	$10
	.byte	$08
	.byte	$79
	.byte	$00
	.byte	$20
	.byte	$18
	.byte	$85
	.byte	$00
	.byte	$20
	.byte	$20
	.byte	$81
	.byte	$00
	.byte	$30
	.byte	$08
	.byte	$89
	.byte	$00
	.byte	$30
	.byte	$10
	.byte	$03
	.byte	$C1
	.byte	$28
	.byte	$10
	.byte	$8D
	.byte	$00
	.byte	$28
	.byte	$18
	.byte	$A4
	.byte	$00
	.byte	$28
	.byte	$20
	.byte	$A3
	.byte	$00
	.byte	$30
	.byte	$18
	.byte	$C3
	.byte	$00
	.byte	$38
	.byte	$18
	.byte	$C0
	.byte	$00
	.byte	$38
	.byte	$10
	.byte	$BC
	.byte	$00
	.byte	$30
	.byte	$20
	.byte	$C4
	.byte	$00
	.byte	$28
	.byte	$28
	.byte	$CC
	.byte	$00
	.byte	$80
_palette_sprites:
	.byte	$1B
	.byte	$26
	.byte	$07
	.byte	$21
	.byte	$1B
	.byte	$0C
	.byte	$21
	.byte	$32
	.byte	$1B
	.byte	$36
	.byte	$06
	.byte	$15
	.byte	$1B
	.byte	$27
	.byte	$16
	.byte	$29
_palette_bg:
	.byte	$0F
	.byte	$2D
	.byte	$1A
	.byte	$10
	.byte	$0F
	.byte	$11
	.byte	$1A
	.byte	$21
	.byte	$0F
	.byte	$2A
	.byte	$1A
	.byte	$0A
	.byte	$0F
	.byte	$17
	.byte	$1A
	.byte	$07
L2200:
	.byte	$40,$53,$54,$45,$50,$53,$3A,$40,$40,$00
L223F:
	.byte	$40,$54,$49,$4D,$45,$3A,$40,$00

.segment	"BSS"

.segment	"ZEROPAGE"
_powerpad_cur:
	.res	2,$00
_powerpad_old:
	.res	2,$00
_powerpad_new:
	.res	2,$00
_debug_controller:
	.res	1,$00
_debug_controller_new:
	.res	1,$00
_temp_int:
	.res	2,$00
_last_step:
	.res	1,$00
_steps:
	.res	2,$00
_ones_step:
	.res	1,$00
_tens_step:
	.res	1,$00
_hundreds_step:
	.res	1,$00
_thousands_step:
	.res	1,$00
_ten_thousands_step:
	.res	1,$00
_steps_per_minute:
	.res	2,$00
_hundreds_spm:
	.res	1,$00
_tens_spm:
	.res	1,$00
_ones_spm:
	.res	1,$00
_seconds:
	.res	2,$00
_ones_seconds:
	.res	1,$00
_tens_seconds:
	.res	1,$00
_ones_minutes:
	.res	1,$00
_tens_minutes:
	.res	1,$00
_ones_hours:
	.res	1,$00
_tens_hours:
	.res	1,$00
_frame_counter:
	.res	1,$00
_step_button_lockout:
	.res	1,$00
_motion_counter:
	.res	1,$00
_time_since_button_press:
	.res	1,$00
_motion:
	.res	1,$00
_was_running:
	.res	1,$00
_was_walking:
	.res	1,$00
_index:
	.res	1,$00
_mph:
	.res	1,$00
_sprite_timer:
	.res	1,$00
_sprite_frame_counter:
	.res	1,$00
_title_animation_frame:
	.res	1,$00
_title_frame_counter:
	.res	1,$00
_options_cursor_frame:
	.res	1,$00
_options_cursor_timer:
	.res	1,$00
_scroll_x:
	.res	2,$00
_scroll_subpixel:
	.res	2,$00
_velocity:
	.res	2,$00
_largeindex:
	.res	2,$00
_pointer:
	.res	2,$00
_scroll_timer:
	.res	1,$00
_total_steps_needed:
	.res	2,$00
_game_mode:
	.res	1,$00
_selected_option:
	.res	1,$00
_race_type:
	.res	1,$00

; ---------------------------------------------------------------
; void __near__ add_step (void)
; ---------------------------------------------------------------

.segment	"CODE"

.proc	_add_step: near

.segment	"CODE"

;
; if(step_button_lockout > 0){
;
	lda     _step_button_lockout
;
; return; //still in lockout period
;
	beq     L24C0
;
; }
;
	rts
;
; update_steps_per_minute(); // calculate SPM before resetting the timer
;
L24C0:	jsr     _update_steps_per_minute
;
; sprite_timer = 0; //used for animation
;
	lda     #$00
	sta     _sprite_timer
;
; velocity += 100;
;
	lda     #$64
	clc
	adc     _velocity
	sta     _velocity
	bcc     L209F
	inc     _velocity+1
;
; if(velocity > 720){
;
L209F:	lda     _velocity
	cmp     #$D1
	lda     _velocity+1
	sbc     #$02
	lda     #$00
	bcc     L24BA
;
; velocity = 720;
;
	ldx     #$02
	lda     #$D0
	sta     _velocity
	stx     _velocity+1
;
; time_since_button_press = 0;
;
	lda     #$00
L24BA:	sta     _time_since_button_press
;
; steps++;
;
	lda     _steps
	ldx     _steps+1
	clc
	adc     #$01
	bcc     L20A7
	inx
L20A7:	sta     _steps
	stx     _steps+1
;
; step_button_lockout = FRAMES_PER_STEP; //lock out for a few frames to avoid double counting
;
	lda     #$0A
	sta     _step_button_lockout
;
; if(ones_step == 9){
;
	lda     _ones_step
	cmp     #$09
	bne     L24BF
;
; ones_step = 0;
;
	lda     #$00
	sta     _ones_step
;
; if(tens_step == 9){
;
	lda     _tens_step
	cmp     #$09
	bne     L24BE
;
; tens_step = 0;
;
	lda     #$00
	sta     _tens_step
;
; if(hundreds_step == 9){
;
	lda     _hundreds_step
	cmp     #$09
	bne     L24BD
;
; hundreds_step = 0;
;
	lda     #$00
	sta     _hundreds_step
;
; if(thousands_step == 9){
;
	lda     _thousands_step
	cmp     #$09
	bne     L24BC
;
; thousands_step = 0;
;
	lda     #$00
	sta     _thousands_step
;
; if(ten_thousands_step == 9){
;
	lda     _ten_thousands_step
	cmp     #$09
	bne     L24BB
;
; ten_thousands_step = 0;
;
	lda     #$00
	sta     _ten_thousands_step
;
; } else {
;
	rts
;
; ten_thousands_step++;
;
L24BB:	inc     _ten_thousands_step
;
; } else {
;
	rts
;
; thousands_step++;
;
L24BC:	inc     _thousands_step
;
; } else {
;
	rts
;
; hundreds_step++;
;
L24BD:	inc     _hundreds_step
;
; } else {
;
	rts
;
; tens_step++;
;
L24BE:	inc     _tens_step
;
; } else {
;
	rts
;
; ones_step++;
;
L24BF:	inc     _ones_step
;
; }
;
	rts

.endproc

; ---------------------------------------------------------------
; void __near__ add_second (void)
; ---------------------------------------------------------------

.segment	"CODE"

.proc	_add_second: near

.segment	"CODE"

;
; seconds++;
;
	lda     _seconds
	ldx     _seconds+1
	clc
	adc     #$01
	bcc     L2072
	inx
L2072:	sta     _seconds
	stx     _seconds+1
;
; if(ones_seconds == 9){
;
	lda     _ones_seconds
	cmp     #$09
	bne     L24C6
;
; ones_seconds = 0;
;
	lda     #$00
	sta     _ones_seconds
;
; if(tens_seconds == 5){
;
	lda     _tens_seconds
	cmp     #$05
	bne     L24C5
;
; tens_seconds = 0;
;
	lda     #$00
	sta     _tens_seconds
;
; if(ones_minutes == 9){
;
	lda     _ones_minutes
	cmp     #$09
	bne     L24C4
;
; ones_minutes = 0;
;
	lda     #$00
	sta     _ones_minutes
;
; if(tens_minutes == 5){
;
	lda     _tens_minutes
	cmp     #$05
	bne     L24C3
;
; tens_minutes = 0;
;
	lda     #$00
	sta     _tens_minutes
;
; if(ones_hours == 9){
;
	lda     _ones_hours
	cmp     #$09
	bne     L24C2
;
; ones_hours = 0;
;
	lda     #$00
	sta     _ones_hours
;
; if(tens_hours == 2){
;
	lda     _tens_hours
	cmp     #$02
	bne     L24C1
;
; tens_hours = 0;
;
	lda     #$00
	sta     _tens_hours
;
; } else {
;
	rts
;
; tens_hours++;
;
L24C1:	inc     _tens_hours
;
; } else {
;
	rts
;
; ones_hours++;
;
L24C2:	inc     _ones_hours
;
; } else {
;
	rts
;
; tens_minutes++;
;
L24C3:	inc     _tens_minutes
;
; } else {
;
	rts
;
; ones_minutes++;
;
L24C4:	inc     _ones_minutes
;
; } else {
;
	rts
;
; tens_seconds++;
;
L24C5:	inc     _tens_seconds
;
; } else {
;
	rts
;
; ones_seconds++;
;
L24C6:	inc     _ones_seconds
;
; }
;
	rts

.endproc

; ---------------------------------------------------------------
; void __near__ initial_steps_conversion (void)
; ---------------------------------------------------------------

.segment	"CODE"

.proc	_initial_steps_conversion: near

.segment	"CODE"

;
; temp_int = steps;
;
	lda     _steps
	ldx     _steps+1
	sta     _temp_int
	stx     _temp_int+1
;
; ones_step = temp_int % 10;
;
	jsr     pushax
	lda     #$0A
	jsr     tosumoda0
	sta     _ones_step
;
; temp_int = temp_int / 10;
;
	lda     _temp_int
	ldx     _temp_int+1
	jsr     pushax
	lda     #$0A
	jsr     tosudiva0
	sta     _temp_int
	stx     _temp_int+1
;
; tens_step = temp_int % 10;
;
	jsr     pushax
	lda     #$0A
	jsr     tosumoda0
	sta     _tens_step
;
; temp_int = temp_int / 10;
;
	lda     _temp_int
	ldx     _temp_int+1
	jsr     pushax
	lda     #$0A
	jsr     tosudiva0
	sta     _temp_int
	stx     _temp_int+1
;
; hundreds_step = temp_int % 10;
;
	jsr     pushax
	lda     #$0A
	jsr     tosumoda0
	sta     _hundreds_step
;
; temp_int = temp_int / 10;
;
	lda     _temp_int
	ldx     _temp_int+1
	jsr     pushax
	lda     #$0A
	jsr     tosudiva0
	sta     _temp_int
	stx     _temp_int+1
;
; thousands_step = temp_int % 10;
;
	jsr     pushax
	lda     #$0A
	jsr     tosumoda0
	sta     _thousands_step
;
; temp_int = temp_int / 10;
;
	lda     _temp_int
	ldx     _temp_int+1
	jsr     pushax
	lda     #$0A
	jsr     tosudiva0
	sta     _temp_int
	stx     _temp_int+1
;
; ten_thousands_step = temp_int % 10;
;
	jsr     pushax
	lda     #$0A
	jsr     tosumoda0
	sta     _ten_thousands_step
;
; one_vram_buffer(0x30+ten_thousands_step, NTADR_A(10, 4));
;
	clc
	adc     #$30
	jsr     pusha
	ldx     #$20
	lda     #$8A
	jsr     _one_vram_buffer
;
; one_vram_buffer(0x30+thousands_step, NTADR_A(11, 4));
;
	lda     _thousands_step
	clc
	adc     #$30
	jsr     pusha
	ldx     #$20
	lda     #$8B
	jsr     _one_vram_buffer
;
; one_vram_buffer(0x30+hundreds_step, NTADR_A(13, 4));
;
	lda     _hundreds_step
	clc
	adc     #$30
	jsr     pusha
	ldx     #$20
	lda     #$8D
	jsr     _one_vram_buffer
;
; one_vram_buffer(0x30+tens_step, NTADR_A(14, 4));
;
	lda     _tens_step
	clc
	adc     #$30
	jsr     pusha
	ldx     #$20
	lda     #$8E
	jsr     _one_vram_buffer
;
; one_vram_buffer(0x30+ones_step, NTADR_A(15, 4));
;
	lda     _ones_step
	clc
	adc     #$30
	jsr     pusha
	ldx     #$20
	lda     #$8F
	jmp     _one_vram_buffer

.endproc

; ---------------------------------------------------------------
; void __near__ initial_timer_conversion (void)
; ---------------------------------------------------------------

.segment	"CODE"

.proc	_initial_timer_conversion: near

.segment	"CODE"

;
; temp_int = seconds;
;
	lda     _seconds
	ldx     _seconds+1
	sta     _temp_int
	stx     _temp_int+1
;
; ones_seconds = temp_int % 10;
;
	jsr     pushax
	lda     #$0A
	jsr     tosumoda0
	sta     _ones_seconds
;
; temp_int = temp_int / 10;
;
	lda     _temp_int
	ldx     _temp_int+1
	jsr     pushax
	lda     #$0A
	jsr     tosudiva0
	sta     _temp_int
	stx     _temp_int+1
;
; tens_seconds = temp_int % 6;
;
	jsr     pushax
	lda     #$06
	jsr     tosumoda0
	sta     _tens_seconds
;
; temp_int = temp_int / 6;
;
	lda     _temp_int
	ldx     _temp_int+1
	jsr     pushax
	lda     #$06
	jsr     tosudiva0
	sta     _temp_int
	stx     _temp_int+1
;
; ones_minutes = temp_int % 10;
;
	jsr     pushax
	lda     #$0A
	jsr     tosumoda0
	sta     _ones_minutes
;
; temp_int = temp_int / 10;
;
	lda     _temp_int
	ldx     _temp_int+1
	jsr     pushax
	lda     #$0A
	jsr     tosudiva0
	sta     _temp_int
	stx     _temp_int+1
;
; tens_minutes = temp_int % 6;
;
	jsr     pushax
	lda     #$06
	jsr     tosumoda0
	sta     _tens_minutes
;
; temp_int = temp_int / 6;
;
	lda     _temp_int
	ldx     _temp_int+1
	jsr     pushax
	lda     #$06
	jsr     tosudiva0
	sta     _temp_int
	stx     _temp_int+1
;
; ones_hours = temp_int % 10;
;
	jsr     pushax
	lda     #$0A
	jsr     tosumoda0
	sta     _ones_hours
;
; temp_int = temp_int / 10;
;
	lda     _temp_int
	ldx     _temp_int+1
	jsr     pushax
	lda     #$0A
	jsr     tosudiva0
	sta     _temp_int
	stx     _temp_int+1
;
; tens_hours = temp_int % 3;
;
	jsr     pushax
	lda     #$03
	jsr     tosumoda0
	sta     _tens_hours
;
; one_vram_buffer(0x30+tens_hours, NTADR_A(8, 2));
;
	clc
	adc     #$30
	jsr     pusha
	ldx     #$20
	lda     #$48
	jsr     _one_vram_buffer
;
; one_vram_buffer(0x30+ones_hours, NTADR_A(9, 2));
;
	lda     _ones_hours
	clc
	adc     #$30
	jsr     pusha
	ldx     #$20
	lda     #$49
	jsr     _one_vram_buffer
;
; one_vram_buffer(0x30+tens_minutes, NTADR_A(11, 2));
;
	lda     _tens_minutes
	clc
	adc     #$30
	jsr     pusha
	ldx     #$20
	lda     #$4B
	jsr     _one_vram_buffer
;
; one_vram_buffer(0x30+ones_minutes, NTADR_A(12, 2));
;
	lda     _ones_minutes
	clc
	adc     #$30
	jsr     pusha
	ldx     #$20
	lda     #$4C
	jsr     _one_vram_buffer
;
; one_vram_buffer(0x30+tens_seconds, NTADR_A(14, 2));
;
	lda     _tens_seconds
	clc
	adc     #$30
	jsr     pusha
	ldx     #$20
	lda     #$4E
	jsr     _one_vram_buffer
;
; one_vram_buffer(0x30+ones_seconds, NTADR_A(15, 2));
;
	lda     _ones_seconds
	clc
	adc     #$30
	jsr     pusha
	ldx     #$20
	lda     #$4F
	jmp     _one_vram_buffer

.endproc

; ---------------------------------------------------------------
; void __near__ check_motion (void)
; ---------------------------------------------------------------

.segment	"CODE"

.proc	_check_motion: near

.segment	"CODE"

;
; if(velocity >= 320){
;
	lda     _velocity
	cmp     #$40
	lda     _velocity+1
	sbc     #$01
	bcc     L20C9
;
; motion = RUNNING;
;
	lda     #$00
;
; } else if(velocity > 0){
;
	jmp     L24C7
L20C9:	lda     _velocity
	ora     _velocity+1
	beq     L24C8
;
; motion = WALKING;
;
	lda     #$01
;
; } else {
;
	jmp     L24C7
;
; motion = STANDING;
;
L24C8:	lda     #$02
L24C7:	sta     _motion
;
; }
;
	rts

.endproc

; ---------------------------------------------------------------
; void __near__ load_room (void)
; ---------------------------------------------------------------

.segment	"CODE"

.proc	_load_room: near

.segment	"CODE"

;
; ppu_off();
;
	jsr     _ppu_off
;
; clear_background();
;
	jsr     _clear_background
;
; vram_adr(NAMETABLE_A);
;
	ldx     #$20
	lda     #$00
	jsr     _vram_adr
;
; for (largeindex = 0; largeindex < 1024; ++largeindex)
;
	lda     #$00
	sta     _largeindex
	sta     _largeindex+1
L2495:	ldx     _largeindex+1
	cpx     #$04
	bcs     L2496
;
; vram_put(trackflowers[largeindex]);
;
	lda     #<(_trackflowers)
	sta     ptr1
	lda     #>(_trackflowers)
	clc
	adc     _largeindex+1
	sta     ptr1+1
	ldy     _largeindex
	lda     (ptr1),y
	jsr     _vram_put
;
; ++index;
;
	inc     _index
;
; if (index > 1)
;
	lda     _index
	cmp     #$02
	bcc     L2497
;
; flush_vram_update2();
;
	jsr     _flush_vram_update2
;
; index = 0;
;
	lda     #$00
	sta     _index
;
; for (largeindex = 0; largeindex < 1024; ++largeindex)
;
L2497:	inc     _largeindex
	bne     L2495
	inc     _largeindex+1
	jmp     L2495
;
; vram_adr(NTADR_A(01,11));
;
L2496:	ldx     #$21
	lda     #$61
	jsr     _vram_adr
;
; vram_put(0x01);
;
	lda     #$01
	jsr     _vram_put
;
; ppu_on_all();
;
	jmp     _ppu_on_all

.endproc

; ---------------------------------------------------------------
; void __near__ draw_sprite (void)
; ---------------------------------------------------------------

.segment	"CODE"

.proc	_draw_sprite: near

.segment	"CODE"

;
; oam_clear();
;
	ldy     #$09
	jsr     subysp
	jsr     _oam_clear
;
; set_sprite_zero();
;
	jsr     _set_sprite_zero
;
; oam_set(4); // start drawing from slot 4
;
	lda     #$04
	jsr     _oam_set
;
; ++sprite_frame_counter;
;
	inc     _sprite_frame_counter
;
; if(sprite_frame_counter >= 60){
;
	lda     _sprite_frame_counter
	cmp     #$3C
	bcc     L2183
;
; sprite_frame_counter = 0;
;
	lda     #$00
	sta     _sprite_frame_counter
;
; if(velocity == 0){
;
L2183:	lda     _velocity
	ora     _velocity+1
;
; } else if(sprite_frame_counter < 15){
;
	beq     L2197
	lda     _sprite_frame_counter
	cmp     #$0F
	bcs     L24CC
;
; progress_cursor_data = marathon_man_cursor1_data;
;
	lda     #<(_marathon_man_cursor1_data)
	ldx     #>(_marathon_man_cursor1_data)
;
; } else if(sprite_frame_counter < 30){
;
	jmp     L24D5
L24CC:	lda     _sprite_frame_counter
	cmp     #$1E
;
; } else if(sprite_frame_counter < 45){
;
	bcc     L2197
	cmp     #$2D
	bcs     L2197
;
; progress_cursor_data = marathon_man_cursor3_data;
;
	lda     #<(_marathon_man_cursor3_data)
	ldx     #>(_marathon_man_cursor3_data)
;
; } else {
;
	jmp     L24D5
;
; progress_cursor_data = marathon_man_cursor2_data;
;
L2197:	lda     #<(_marathon_man_cursor2_data)
	ldx     #>(_marathon_man_cursor2_data)
L24D5:	jsr     stax0sp
;
; progress_x = 16;
;
	lda     #$10
	ldy     #$08
	sta     (sp),y
;
; if(total_steps_needed > 0){
;
	lda     _total_steps_needed
	ora     _total_steps_needed+1
	beq     L21A0
;
; clamped_steps = steps;
;
	lda     _steps
	ldx     _steps+1
	ldy     #$06
	jsr     staxysp
;
; if(clamped_steps > total_steps_needed){
;
	sec
	sbc     _total_steps_needed
	sta     tmp1
	txa
	sbc     _total_steps_needed+1
	ora     tmp1
	bcc     L21A5
	beq     L21A5
;
; clamped_steps = total_steps_needed;
;
	lda     _total_steps_needed
	ldx     _total_steps_needed+1
	ldy     #$06
	jsr     staxysp
;
; progress_scaled = ((unsigned long)clamped_steps * 212UL) / (unsigned long)total_steps_needed;
;
L21A5:	ldy     #$07
	lda     (sp),y
	tax
	dey
	lda     (sp),y
	jsr     push0ax
	ldx     #$00
	lda     #$D4
	jsr     tosumul0ax
	jsr     pusheax
	lda     _total_steps_needed
	ldx     _total_steps_needed+1
	jsr     tosudiv0ax
	ldy     #$02
	jsr     steaxysp
;
; progress_x = 16 + (unsigned char)progress_scaled;
;
	ldy     #$02
	lda     (sp),y
	clc
	adc     #$10
	ldy     #$08
	sta     (sp),y
;
; oam_meta_spr(progress_x + 5, 74, progress_cursor_data);
;
L21A0:	jsr     decsp2
	ldy     #$0A
	lda     (sp),y
	clc
	adc     #$05
	ldy     #$01
	sta     (sp),y
	lda     #$4A
	dey
	sta     (sp),y
	ldy     #$03
	lda     (sp),y
	tax
	dey
	lda     (sp),y
	jsr     _oam_meta_spr
;
; if(motion == RUNNING){
;
	lda     _motion
	jne     L24D2
;
; if(sprite_frame_counter < 10){
;
	lda     _sprite_frame_counter
	cmp     #$0A
	bcs     L24CE
;
; oam_meta_spr(120, 120, marathon_man_run1_data);
;
	jsr     decsp2
	lda     #$78
	ldy     #$01
	sta     (sp),y
	dey
	sta     (sp),y
	lda     #<(_marathon_man_run1_data)
	ldx     #>(_marathon_man_run1_data)
;
; } else if(sprite_frame_counter < 20){
;
	jmp     L24CA
L24CE:	lda     _sprite_frame_counter
	cmp     #$14
	bcs     L24CF
;
; oam_meta_spr(120, 120, marathon_man_run2_data);
;
	jsr     decsp2
	lda     #$78
	ldy     #$01
	sta     (sp),y
	dey
	sta     (sp),y
	lda     #<(_marathon_man_run2_data)
	ldx     #>(_marathon_man_run2_data)
;
; } else if(sprite_frame_counter < 30){
;
	jmp     L24CA
L24CF:	lda     _sprite_frame_counter
	cmp     #$1E
	bcs     L24D0
;
; oam_meta_spr(120, 120, marathon_man_run3_data);
;
	jsr     decsp2
	lda     #$78
	ldy     #$01
	sta     (sp),y
	dey
	sta     (sp),y
	lda     #<(_marathon_man_run3_data)
	ldx     #>(_marathon_man_run3_data)
;
; } else if(sprite_frame_counter < 40){
;
	jmp     L24CA
L24D0:	lda     _sprite_frame_counter
	cmp     #$28
	bcs     L24D1
;
; oam_meta_spr(120, 120, marathon_man_run4_data);
;
	jsr     decsp2
	lda     #$78
	ldy     #$01
	sta     (sp),y
	dey
	sta     (sp),y
	lda     #<(_marathon_man_run4_data)
	ldx     #>(_marathon_man_run4_data)
;
; } else if(sprite_frame_counter < 50){
;
	jmp     L24CA
L24D1:	lda     _sprite_frame_counter
	cmp     #$32
	bcs     L21D2
;
; oam_meta_spr(120, 120, marathon_man_run5_data);
;
	jsr     decsp2
	lda     #$78
	ldy     #$01
	sta     (sp),y
	dey
	sta     (sp),y
	lda     #<(_marathon_man_run5_data)
	ldx     #>(_marathon_man_run5_data)
;
; } else {
;
	jmp     L24CA
;
; oam_meta_spr(120, 120, marathon_man_run6_data);
;
L21D2:	jsr     decsp2
	lda     #$78
	ldy     #$01
	sta     (sp),y
	dey
	sta     (sp),y
	lda     #<(_marathon_man_run6_data)
	ldx     #>(_marathon_man_run6_data)
;
; } else if(motion == WALKING){
;
	jmp     L24CA
L24D2:	lda     _motion
	cmp     #$01
	bne     L21DE
;
; if(sprite_frame_counter < 15){
;
	lda     _sprite_frame_counter
	cmp     #$0F
;
; } else if(sprite_frame_counter < 30){
;
	bcc     L21DE
	cmp     #$1E
	bcs     L24D4
;
; oam_meta_spr(120, 120, marathon_man_walk2_data);
;
	jsr     decsp2
	lda     #$78
	ldy     #$01
	sta     (sp),y
	dey
	sta     (sp),y
	lda     #<(_marathon_man_walk2_data)
	ldx     #>(_marathon_man_walk2_data)
;
; } else if(sprite_frame_counter < 45){
;
	jmp     L24CA
L24D4:	lda     _sprite_frame_counter
	cmp     #$2D
	bcs     L21EE
;
; oam_meta_spr(120, 120, marathon_man_walk3_data);
;
	jsr     decsp2
	lda     #$78
	ldy     #$01
	sta     (sp),y
	dey
	sta     (sp),y
	lda     #<(_marathon_man_walk3_data)
	ldx     #>(_marathon_man_walk3_data)
;
; } else {
;
	jmp     L24CA
;
; oam_meta_spr(120, 120, marathon_man_walk4_data);
;
L21EE:	jsr     decsp2
	lda     #$78
	ldy     #$01
	sta     (sp),y
	dey
	sta     (sp),y
	lda     #<(_marathon_man_walk4_data)
	ldx     #>(_marathon_man_walk4_data)
;
; } else {
;
	jmp     L24CA
;
; oam_meta_spr(120, 120, marathon_man_walk1_data);
;
L21DE:	jsr     decsp2
	lda     #$78
	ldy     #$01
	sta     (sp),y
	dey
	sta     (sp),y
	lda     #<(_marathon_man_walk1_data)
	ldx     #>(_marathon_man_walk1_data)
L24CA:	jsr     _oam_meta_spr
;
; }
;
	ldy     #$09
	jmp     addysp

.endproc

; ---------------------------------------------------------------
; void __near__ draw_hud (void)
; ---------------------------------------------------------------

.segment	"CODE"

.proc	_draw_hud: near

.segment	"CODE"

;
; multi_vram_buffer_horz("@STEPS:@@", 9, NTADR_A(1, 4));
;
	jsr     decsp3
	lda     #<(L2200)
	ldy     #$01
	sta     (sp),y
	iny
	lda     #>(L2200)
	sta     (sp),y
	lda     #$09
	ldy     #$00
	sta     (sp),y
	ldx     #$20
	lda     #$81
	jsr     _multi_vram_buffer_horz
;
; one_vram_buffer(0x30+ten_thousands_step, NTADR_A(10, 4));
;
	lda     _ten_thousands_step
	clc
	adc     #$30
	jsr     pusha
	ldx     #$20
	lda     #$8A
	jsr     _one_vram_buffer
;
; one_vram_buffer(0x30+thousands_step, NTADR_A(11, 4));
;
	lda     _thousands_step
	clc
	adc     #$30
	jsr     pusha
	ldx     #$20
	lda     #$8B
	jsr     _one_vram_buffer
;
; one_vram_buffer(',', NTADR_A(12, 4));
;
	lda     #$2C
	jsr     pusha
	ldx     #$20
	lda     #$8C
	jsr     _one_vram_buffer
;
; one_vram_buffer(0x30+hundreds_step, NTADR_A(13, 4));
;
	lda     _hundreds_step
	clc
	adc     #$30
	jsr     pusha
	ldx     #$20
	lda     #$8D
	jsr     _one_vram_buffer
;
; one_vram_buffer(0x30+tens_step, NTADR_A(14, 4));
;
	lda     _tens_step
	clc
	adc     #$30
	jsr     pusha
	ldx     #$20
	lda     #$8E
	jsr     _one_vram_buffer
;
; one_vram_buffer(0x30+ones_step, NTADR_A(15, 4));
;
	lda     _ones_step
	clc
	adc     #$30
	jsr     pusha
	ldx     #$20
	lda     #$8F
	jsr     _one_vram_buffer
;
; multi_vram_buffer_horz("@TIME:@", 7, NTADR_A(1, 2));
;
	jsr     decsp3
	lda     #<(L223F)
	ldy     #$01
	sta     (sp),y
	iny
	lda     #>(L223F)
	sta     (sp),y
	lda     #$07
	ldy     #$00
	sta     (sp),y
	ldx     #$20
	lda     #$41
	jsr     _multi_vram_buffer_horz
;
; one_vram_buffer(0x30+tens_hours, NTADR_A(8, 2));
;
	lda     _tens_hours
	clc
	adc     #$30
	jsr     pusha
	ldx     #$20
	lda     #$48
	jsr     _one_vram_buffer
;
; one_vram_buffer(0x30+ones_hours, NTADR_A(9, 2));
;
	lda     _ones_hours
	clc
	adc     #$30
	jsr     pusha
	ldx     #$20
	lda     #$49
	jsr     _one_vram_buffer
;
; one_vram_buffer(':', NTADR_A(10, 2));
;
	lda     #$3A
	jsr     pusha
	ldx     #$20
	lda     #$4A
	jsr     _one_vram_buffer
;
; one_vram_buffer(0x30+tens_minutes, NTADR_A(11, 2));
;
	lda     _tens_minutes
	clc
	adc     #$30
	jsr     pusha
	ldx     #$20
	lda     #$4B
	jsr     _one_vram_buffer
;
; one_vram_buffer(0x30+ones_minutes, NTADR_A(12, 2));
;
	lda     _ones_minutes
	clc
	adc     #$30
	jsr     pusha
	ldx     #$20
	lda     #$4C
	jsr     _one_vram_buffer
;
; one_vram_buffer(':', NTADR_A(13, 2));
;
	lda     #$3A
	jsr     pusha
	ldx     #$20
	lda     #$4D
	jsr     _one_vram_buffer
;
; one_vram_buffer(0x30+tens_seconds, NTADR_A(14, 2));
;
	lda     _tens_seconds
	clc
	adc     #$30
	jsr     pusha
	ldx     #$20
	lda     #$4E
	jsr     _one_vram_buffer
;
; one_vram_buffer(0x30+ones_seconds, NTADR_A(15, 2));
;
	lda     _ones_seconds
	clc
	adc     #$30
	jsr     pusha
	ldx     #$20
	lda     #$4F
	jmp     _one_vram_buffer

.endproc

; ---------------------------------------------------------------
; void __near__ process_controller (void)
; ---------------------------------------------------------------

.segment	"CODE"

.proc	_process_controller: near

.segment	"CODE"

;
; if(debug_controller_new & PAD_A || debug_controller_new & PAD_B){
;
	lda     _debug_controller_new
	and     #$80
	bne     L24DE
	lda     _debug_controller_new
	and     #$40
	beq     L2048
;
; add_step();
;
L24DE:	jsr     _add_step
;
; if(powerpad_new & POWERPAD_1){
;
L2048:	lda     _powerpad_new+1
	and     #$10
	beq     L204C
;
; add_step();
;
	jsr     _add_step
;
; if(powerpad_new & POWERPAD_2){
;
L204C:	lda     _powerpad_new+1
	and     #$40
	beq     L204F
;
; add_step();
;
	jsr     _add_step
;
; if(powerpad_new & POWERPAD_3){
;
L204F:	lda     _powerpad_new+1
	and     #$20
	beq     L2052
;
; add_step();
;
	jsr     _add_step
;
; if(powerpad_new & POWERPAD_4){
;
L2052:	lda     _powerpad_new+1
	and     #$80
	beq     L2055
;
; add_step();
;
	jsr     _add_step
;
; if(powerpad_new & POWERPAD_5){
;
L2055:	lda     _powerpad_new+1
	and     #$04
	beq     L2058
;
; add_step();
;
	jsr     _add_step
;
; if(powerpad_new & POWERPAD_6){
;
L2058:	lda     _powerpad_new
	and     #$40
	beq     L205B
;
; add_step();
;
	jsr     _add_step
;
; if(powerpad_new & POWERPAD_7){
;
L205B:	lda     _powerpad_new
	and     #$01
	beq     L205E
;
; add_step();
;
	jsr     _add_step
;
; if(powerpad_new & POWERPAD_8){
;
L205E:	lda     _powerpad_new+1
	and     #$02
	beq     L2061
;
; add_step();
;
	jsr     _add_step
;
; if(powerpad_new & POWERPAD_9){
;
L2061:	lda     _powerpad_new+1
	and     #$01
	beq     L2064
;
; add_step();
;
	jsr     _add_step
;
; if(powerpad_new & POWERPAD_10){
;
L2064:	lda     _powerpad_new
	and     #$10
	beq     L2067
;
; add_step();
;
	jsr     _add_step
;
; if(powerpad_new & POWERPAD_11){
;
L2067:	lda     _powerpad_new
	and     #$04
	beq     L206A
;
; add_step();
;
	jsr     _add_step
;
; if(powerpad_new & POWERPAD_12){
;
L206A:	lda     _powerpad_new+1
	and     #$08
;
; add_step();
;
	jne     _add_step
;
; }
;
	rts

.endproc

; ---------------------------------------------------------------
; void __near__ set_sprite_zero (void)
; ---------------------------------------------------------------

.segment	"CODE"

.proc	_set_sprite_zero: near

.segment	"CODE"

;
; oam_set(0); // double check that this goes in the zero slot
;
	lda     #$00
	jsr     _oam_set
;
; oam_spr(0x01,88,0x02,3);
;
	jsr     decsp3
	lda     #$01
	ldy     #$02
	sta     (sp),y
	lda     #$58
	dey
	sta     (sp),y
	lda     #$02
	dey
	sta     (sp),y
	lda     #$03
	jmp     _oam_spr

.endproc

; ---------------------------------------------------------------
; void __near__ update_steps_per_minute (void)
; ---------------------------------------------------------------

.segment	"CODE"

.proc	_update_steps_per_minute: near

.segment	"CODE"

;
; if(time_since_button_press > 0 && time_since_button_press < 255) {
;
	ldx     #$00
	lda     _time_since_button_press
	beq     L24E4
	cmp     #$FF
	bcc     L24E2
	txa
	jmp     L24E4
;
; steps_per_minute = 3600u / (unsigned int)time_since_button_press;
;
L24E2:	ldx     #$0E
	lda     #$10
	jsr     pushax
	lda     _time_since_button_press
	jsr     tosudiva0
;
; steps_per_minute = 0;
;
L24E4:	sta     _steps_per_minute
	stx     _steps_per_minute+1
;
; temp_int = steps_per_minute;
;
	lda     _steps_per_minute
	ldx     _steps_per_minute+1
	sta     _temp_int
	stx     _temp_int+1
;
; ones_spm = temp_int % 10;
;
	jsr     pushax
	lda     #$0A
	jsr     tosumoda0
	sta     _ones_spm
;
; temp_int /= 10;
;
	lda     _temp_int
	ldx     _temp_int+1
	jsr     pushax
	lda     #$0A
	jsr     tosudiva0
	sta     _temp_int
	stx     _temp_int+1
;
; tens_spm = temp_int % 10;
;
	jsr     pushax
	lda     #$0A
	jsr     tosumoda0
	sta     _tens_spm
;
; temp_int /= 10;
;
	lda     _temp_int
	ldx     _temp_int+1
	jsr     pushax
	lda     #$0A
	jsr     tosudiva0
	sta     _temp_int
	stx     _temp_int+1
;
; hundreds_spm = temp_int % 10;
;
	jsr     pushax
	lda     #$0A
	jsr     tosumoda0
	sta     _hundreds_spm
;
; }
;
	rts

.endproc

; ---------------------------------------------------------------
; void __near__ load_title (void)
; ---------------------------------------------------------------

.segment	"CODE"

.proc	_load_title: near

.segment	"CODE"

;
; ppu_off();
;
	jsr     _ppu_off
;
; pal_bg(palette_bg);
;
	lda     #<(_palette_bg)
	ldx     #>(_palette_bg)
	jsr     _pal_bg
;
; pal_spr(palette_sprites);
;
	lda     #<(_palette_sprites)
	ldx     #>(_palette_sprites)
	jsr     _pal_spr
;
; oam_clear();
;
	jsr     _oam_clear
;
; vram_adr(NAMETABLE_A);
;
	ldx     #$20
	lda     #$00
	jsr     _vram_adr
;
; for (largeindex = 0; largeindex < 1024; ++largeindex)
;
	lda     #$00
	sta     _largeindex
	sta     _largeindex+1
L2469:	ldx     _largeindex+1
	cpx     #$04
	bcs     L246A
;
; vram_put(title[largeindex]);
;
	lda     #<(_title)
	sta     ptr1
	lda     #>(_title)
	clc
	adc     _largeindex+1
	sta     ptr1+1
	ldy     _largeindex
	lda     (ptr1),y
	jsr     _vram_put
;
; flush_vram_update2();
;
	jsr     _flush_vram_update2
;
; for (largeindex = 0; largeindex < 1024; ++largeindex)
;
	inc     _largeindex
	bne     L2469
	inc     _largeindex+1
	jmp     L2469
;
; title_animation_frame = 0;
;
L246A:	lda     #$00
	sta     _title_animation_frame
;
; title_frame_counter = 0;
;
	sta     _title_frame_counter
;
; game_mode = MODE_TITLE;
;
	sta     _game_mode
;
; set_scroll_x(0);
;
	tax
	jsr     _set_scroll_x
;
; set_scroll_y(0);
;
	ldx     #$00
	txa
	jsr     _set_scroll_y
;
; ppu_on_all();
;
	jmp     _ppu_on_all

.endproc

; ---------------------------------------------------------------
; void __near__ init_mode_game (void)
; ---------------------------------------------------------------

.segment	"CODE"

.proc	_init_mode_game: near

.segment	"CODE"

;
; ppu_off();
;
	jsr     _ppu_off
;
; pal_bg(palette_bg);
;
	lda     #<(_palette_bg)
	ldx     #>(_palette_bg)
	jsr     _pal_bg
;
; pal_spr(palette_sprites);
;
	lda     #<(_palette_sprites)
	ldx     #>(_palette_sprites)
	jsr     _pal_spr
;
; race_type = selected_option;
;
	lda     _selected_option
	sta     _race_type
;
; if(race_type == RACE_5K){
;
	lda     _race_type
	bne     L24E6
;
; total_steps_needed = 6000; 
;
	ldx     #$17
	lda     #$70
;
; } else if (race_type == RACE_10K){
;
	jmp     L24E7
L24E6:	lda     _race_type
	cmp     #$01
	bne     L1F91
;
; total_steps_needed = 12000;
;
	ldx     #$2E
	lda     #$E0
;
; } else {
;
	jmp     L24E7
;
; total_steps_needed = 52000;
;
L1F91:	ldx     #$CB
	lda     #$20
L24E7:	sta     _total_steps_needed
	stx     _total_steps_needed+1
;
; clear_vram_buffer();
;
	jsr     _clear_vram_buffer
;
; steps = 0;
;
	lda     #$00
	sta     _steps
	sta     _steps+1
;
; seconds = 0;
;
	sta     _seconds
	sta     _seconds+1
;
; scroll_x = 0;
;
	sta     _scroll_x
	sta     _scroll_x+1
;
; scroll_subpixel = 0;
;
	sta     _scroll_subpixel
	sta     _scroll_subpixel+1
;
; velocity = 0;
;
	sta     _velocity
	sta     _velocity+1
;
; frame_counter = 0;
;
	sta     _frame_counter
;
; scroll_timer = 0;
;
	sta     _scroll_timer
;
; step_button_lockout = 0;
;
	sta     _step_button_lockout
;
; sprite_frame_counter = 0;
;
	sta     _sprite_frame_counter
;
; time_since_button_press = 255;
;
	lda     #$FF
	sta     _time_since_button_press
;
; motion = STANDING;
;
	lda     #$02
	sta     _motion
;
; powerpad_old = 0;
;
	lda     #$00
	sta     _powerpad_old
	sta     _powerpad_old+1
;
; powerpad_new = 0;
;
	sta     _powerpad_new
	sta     _powerpad_new+1
;
; initial_steps_conversion();
;
	jsr     _initial_steps_conversion
;
; initial_timer_conversion();
;
	jsr     _initial_timer_conversion
;
; load_room();
;
	jsr     _load_room
;
; ppu_off();
;
	jsr     _ppu_off
;
; set_sprite_zero();
;
	jsr     _set_sprite_zero
;
; set_scroll_y(0xff);
;
	ldx     #$00
	lda     #$FF
	jsr     _set_scroll_y
;
; game_mode = MODE_GAME;
;
	lda     #$02
	sta     _game_mode
;
; ppu_on_all();
;
	jmp     _ppu_on_all

.endproc

; ---------------------------------------------------------------
; void __near__ init_options (void)
; ---------------------------------------------------------------

.segment	"CODE"

.proc	_init_options: near

.segment	"CODE"

;
; ppu_off();
;
	jsr     _ppu_off
;
; pal_bg(palette_bg);
;
	lda     #<(_palette_bg)
	ldx     #>(_palette_bg)
	jsr     _pal_bg
;
; pal_spr(palette_sprites);
;
	lda     #<(_palette_sprites)
	ldx     #>(_palette_sprites)
	jsr     _pal_spr
;
; oam_clear();
;
	jsr     _oam_clear
;
; clear_vram_buffer();
;
	jsr     _clear_vram_buffer
;
; selected_option = 0;
;
	lda     #$00
	sta     _selected_option
;
; options_cursor_frame = 0;
;
	sta     _options_cursor_frame
;
; options_cursor_timer = 0;
;
	sta     _options_cursor_timer
;
; vram_adr(NAMETABLE_A);
;
	ldx     #$20
	jsr     _vram_adr
;
; for(largeindex = 0; largeindex < 1024; ++largeindex){
;
	lda     #$00
	sta     _largeindex
	sta     _largeindex+1
L22CE:	ldx     _largeindex+1
	cpx     #$04
	bcs     L22CF
;
; vram_put(0x00);
;
	lda     #$00
	jsr     _vram_put
;
; flush_vram_update2();
;
	jsr     _flush_vram_update2
;
; for(largeindex = 0; largeindex < 1024; ++largeindex){
;
	inc     _largeindex
	bne     L22CE
	inc     _largeindex+1
	jmp     L22CE
;
; vram_adr(NTADR_A(10, 10));
;
L22CF:	ldx     #$21
	lda     #$4A
	jsr     _vram_adr
;
; vram_put('5'); vram_put('K');
;
	lda     #$35
	jsr     _vram_put
	lda     #$4B
	jsr     _vram_put
;
; vram_adr(NTADR_A(10, 14));
;
	ldx     #$21
	lda     #$CA
	jsr     _vram_adr
;
; vram_put('1'); vram_put('0'); vram_put('K');
;
	lda     #$31
	jsr     _vram_put
	lda     #$30
	jsr     _vram_put
	lda     #$4B
	jsr     _vram_put
;
; vram_adr(NTADR_A(10, 18));
;
	ldx     #$22
	lda     #$4A
	jsr     _vram_adr
;
; vram_put('M'); vram_put('A'); vram_put('R'); vram_put('A');
;
	lda     #$4D
	jsr     _vram_put
	lda     #$41
	jsr     _vram_put
	lda     #$52
	jsr     _vram_put
	lda     #$41
	jsr     _vram_put
;
; vram_put('T'); vram_put('H'); vram_put('O'); vram_put('N');
;
	lda     #$54
	jsr     _vram_put
	lda     #$48
	jsr     _vram_put
	lda     #$4F
	jsr     _vram_put
	lda     #$4E
	jsr     _vram_put
;
; game_mode = MODE_OPTIONS;
;
	lda     #$01
	sta     _game_mode
;
; set_scroll_x(0);
;
	ldx     #$00
	txa
	jsr     _set_scroll_x
;
; set_scroll_y(0);
;
	ldx     #$00
	txa
	jsr     _set_scroll_y
;
; ppu_on_all();
;
	jmp     _ppu_on_all

.endproc

; ---------------------------------------------------------------
; void __near__ init_win_screen (void)
; ---------------------------------------------------------------

.segment	"CODE"

.proc	_init_win_screen: near

.segment	"CODE"

;
; ppu_off();
;
	jsr     _ppu_off
;
; oam_clear();
;
	jsr     _oam_clear
;
; clear_vram_buffer();
;
	jsr     _clear_vram_buffer
;
; vram_adr(NAMETABLE_A);
;
	ldx     #$20
	lda     #$00
	jsr     _vram_adr
;
; vram_fill(0x00, 1024);
;
	lda     #$00
	jsr     pusha
	ldx     #$04
	jsr     _vram_fill
;
; vram_adr(NTADR_A(11, 12));
;
	ldx     #$21
	lda     #$8B
	jsr     _vram_adr
;
; vram_put('Y'); vram_put('O'); vram_put('U');
;
	lda     #$59
	jsr     _vram_put
	lda     #$4F
	jsr     _vram_put
	lda     #$55
	jsr     _vram_put
;
; vram_put(' ');
;
	lda     #$20
	jsr     _vram_put
;
; vram_put('W'); vram_put('I'); vram_put('N');
;
	lda     #$57
	jsr     _vram_put
	lda     #$49
	jsr     _vram_put
	lda     #$4E
	jsr     _vram_put
;
; vram_adr(NTADR_A(9, 15));
;
	ldx     #$21
	lda     #$E9
	jsr     _vram_adr
;
; vram_put('T'); vram_put('I'); vram_put('M'); vram_put('E');
;
	lda     #$54
	jsr     _vram_put
	lda     #$49
	jsr     _vram_put
	lda     #$4D
	jsr     _vram_put
	lda     #$45
	jsr     _vram_put
;
; vram_put(':');
;
	lda     #$3A
	jsr     _vram_put
;
; vram_put(0x30 + tens_hours);
;
	lda     _tens_hours
	clc
	adc     #$30
	jsr     _vram_put
;
; vram_put(0x30 + ones_hours);
;
	lda     _ones_hours
	clc
	adc     #$30
	jsr     _vram_put
;
; vram_put(':');
;
	lda     #$3A
	jsr     _vram_put
;
; vram_put(0x30 + tens_minutes);
;
	lda     _tens_minutes
	clc
	adc     #$30
	jsr     _vram_put
;
; vram_put(0x30 + ones_minutes);
;
	lda     _ones_minutes
	clc
	adc     #$30
	jsr     _vram_put
;
; vram_put(':');
;
	lda     #$3A
	jsr     _vram_put
;
; vram_put(0x30 + tens_seconds);
;
	lda     _tens_seconds
	clc
	adc     #$30
	jsr     _vram_put
;
; vram_put(0x30 + ones_seconds);
;
	lda     _ones_seconds
	clc
	adc     #$30
	jsr     _vram_put
;
; vram_adr(NTADR_A(6, 20));
;
	ldx     #$22
	lda     #$86
	jsr     _vram_adr
;
; vram_put('P'); vram_put('R'); vram_put('E'); vram_put('S'); vram_put('S');
;
	lda     #$50
	jsr     _vram_put
	lda     #$52
	jsr     _vram_put
	lda     #$45
	jsr     _vram_put
	lda     #$53
	jsr     _vram_put
	lda     #$53
	jsr     _vram_put
;
; vram_put(' ');
;
	lda     #$20
	jsr     _vram_put
;
; vram_put('S'); vram_put('T'); vram_put('A'); vram_put('R'); vram_put('T');
;
	lda     #$53
	jsr     _vram_put
	lda     #$54
	jsr     _vram_put
	lda     #$41
	jsr     _vram_put
	lda     #$52
	jsr     _vram_put
	lda     #$54
	jsr     _vram_put
;
; game_mode = MODE_WIN;
;
	lda     #$03
	sta     _game_mode
;
; set_scroll_x(0);
;
	ldx     #$00
	txa
	jsr     _set_scroll_x
;
; set_scroll_y(0);
;
	ldx     #$00
	txa
	jsr     _set_scroll_y
;
; ppu_on_all();
;
	jmp     _ppu_on_all

.endproc

; ---------------------------------------------------------------
; void __near__ draw_options_screen (void)
; ---------------------------------------------------------------

.segment	"CODE"

.proc	_draw_options_screen: near

.segment	"CODE"

;
; ++options_cursor_timer;
;
	jsr     decsp3
	inc     _options_cursor_timer
;
; if(options_cursor_timer >= 16){
;
	lda     _options_cursor_timer
	cmp     #$10
	bcc     L24EA
;
; options_cursor_timer = 0;
;
	lda     #$00
	sta     _options_cursor_timer
;
; ++options_cursor_frame;
;
	inc     _options_cursor_frame
;
; if(options_cursor_frame >= 4){
;
	lda     _options_cursor_frame
	cmp     #$04
	bcc     L24EA
;
; options_cursor_frame = 0;
;
	lda     #$00
	sta     _options_cursor_frame
;
; if(selected_option == 0){
;
L24EA:	lda     _selected_option
	bne     L24EB
;
; cursor_y = 80;
;
	lda     #$50
;
; } else if(selected_option == 1){
;
	jmp     L24EF
L24EB:	lda     _selected_option
	cmp     #$01
	bne     L24EC
;
; cursor_y = 112;
;
	lda     #$70
;
; } else {
;
	jmp     L24EF
;
; cursor_y = 144;
;
L24EC:	lda     #$90
L24EF:	ldy     #$02
	sta     (sp),y
;
; if(options_cursor_frame == 0){
;
	lda     _options_cursor_frame
	bne     L24ED
;
; cursor_data = marathon_man_cursor1_data;
;
	lda     #<(_marathon_man_cursor1_data)
	ldx     #>(_marathon_man_cursor1_data)
;
; } else if(options_cursor_frame == 1){
;
	jmp     L24F0
L24ED:	lda     _options_cursor_frame
	cmp     #$01
;
; } else if(options_cursor_frame == 2){ 
;
	beq     L22AF
	cmp     #$02
	bne     L22AF
;
; cursor_data = marathon_man_cursor3_data;
;
	lda     #<(_marathon_man_cursor3_data)
	ldx     #>(_marathon_man_cursor3_data)
;
; } else {
;
	jmp     L24F0
;
; cursor_data = marathon_man_cursor2_data;
;
L22AF:	lda     #<(_marathon_man_cursor2_data)
	ldx     #>(_marathon_man_cursor2_data)
L24F0:	jsr     stax0sp
;
; oam_clear();
;
	jsr     _oam_clear
;
; oam_set(0);
;
	lda     #$00
	jsr     _oam_set
;
; oam_meta_spr(68, cursor_y - 2, cursor_data);
;
	jsr     decsp2
	lda     #$44
	ldy     #$01
	sta     (sp),y
	ldy     #$04
	lda     (sp),y
	sec
	sbc     #$02
	ldy     #$00
	sta     (sp),y
	ldy     #$03
	lda     (sp),y
	tax
	dey
	lda     (sp),y
	jsr     _oam_meta_spr
;
; }
;
	jmp     incsp3

.endproc

; ---------------------------------------------------------------
; void __near__ set_signature_sprite (void)
; ---------------------------------------------------------------

.segment	"CODE"

.proc	_set_signature_sprite: near

.segment	"CODE"

;
; switch(title_animation_frame){  
;
	lda     _title_animation_frame
;
; }
;
	jeq     L237E
	cmp     #$01
	jeq     L2382
	cmp     #$02
	jeq     L2386
	cmp     #$03
	jeq     L238A
	cmp     #$04
	jeq     L238E
	cmp     #$05
	jeq     L2392
	cmp     #$06
	jeq     L2396
	cmp     #$07
	jeq     L239A
	cmp     #$08
	jeq     L239E
	cmp     #$09
	jeq     L23A2
	cmp     #$0A
	jeq     L23A6
	cmp     #$0B
	jeq     L23AA
	cmp     #$0C
	jeq     L23AE
	cmp     #$0D
	jeq     L23B2
	cmp     #$0E
	jeq     L23B6
	cmp     #$0F
	jeq     L23BA
	cmp     #$10
	jeq     L23BE
	cmp     #$11
	jeq     L23C2
	cmp     #$12
	jeq     L23C6
	cmp     #$13
	jeq     L23CA
	cmp     #$14
	jeq     L23CE
	cmp     #$15
	jeq     L23D2
	cmp     #$16
	jeq     L23D6
	cmp     #$17
	jeq     L23DA
	cmp     #$18
	jeq     L23DE
	cmp     #$19
	jeq     L23E2
	cmp     #$1A
	jeq     L23E6
	cmp     #$1B
	jeq     L23EA
	cmp     #$1C
	jeq     L23EE
	cmp     #$1D
	jeq     L23F2
	cmp     #$1E
	jeq     L23F6
	cmp     #$1F
	jeq     L23FA
	cmp     #$20
	jeq     L23FE
	cmp     #$21
	jeq     L2402
	cmp     #$22
	jeq     L2406
	cmp     #$23
	jeq     L240A
	cmp     #$24
	jeq     L240E
	cmp     #$25
	jeq     L2412
	cmp     #$26
	jeq     L2416
	cmp     #$27
	jeq     L241A
	cmp     #$28
	jeq     L241E
	cmp     #$29
	jeq     L2422
	cmp     #$2A
	jeq     L2426
	cmp     #$2B
	jeq     L242A
	cmp     #$2C
	jeq     L242E
	cmp     #$2D
	jeq     L2432
	cmp     #$2E
	jeq     L2436
	cmp     #$2F
	jeq     L243A
	cmp     #$30
	jeq     L243E
	cmp     #$31
	jeq     L2442
	cmp     #$32
	jeq     L2446
	cmp     #$33
	jeq     L244A
	cmp     #$34
	jeq     L244E
	cmp     #$35
	jeq     L2452
	cmp     #$36
	jeq     L2459
	jmp     L2459
;
; case 0: pointer = marathon_man_alan0_data; break;
;
L237E:	lda     #>(_marathon_man_alan0_data)
	sta     _pointer+1
	lda     #<(_marathon_man_alan0_data)
	jmp     L24F2
;
; case 1: pointer = marathon_man_alan1_data; break;
;
L2382:	lda     #>(_marathon_man_alan1_data)
	sta     _pointer+1
	lda     #<(_marathon_man_alan1_data)
	jmp     L24F2
;
; case 2: pointer = marathon_man_alan2_data; break;
;
L2386:	lda     #>(_marathon_man_alan2_data)
	sta     _pointer+1
	lda     #<(_marathon_man_alan2_data)
	jmp     L24F2
;
; case 3: pointer = marathon_man_alan3_data; break;
;
L238A:	lda     #>(_marathon_man_alan3_data)
	sta     _pointer+1
	lda     #<(_marathon_man_alan3_data)
	jmp     L24F2
;
; case 4: pointer = marathon_man_alan4_data; break;
;
L238E:	lda     #>(_marathon_man_alan4_data)
	sta     _pointer+1
	lda     #<(_marathon_man_alan4_data)
	jmp     L24F2
;
; case 5: pointer = marathon_man_alan5_data; break; 
;
L2392:	lda     #>(_marathon_man_alan5_data)
	sta     _pointer+1
	lda     #<(_marathon_man_alan5_data)
	jmp     L24F2
;
; case 6: pointer = marathon_man_alan6_data; break;
;
L2396:	lda     #>(_marathon_man_alan6_data)
	sta     _pointer+1
	lda     #<(_marathon_man_alan6_data)
	jmp     L24F2
;
; case 7: pointer = marathon_man_alan7_data; break;
;
L239A:	lda     #>(_marathon_man_alan7_data)
	sta     _pointer+1
	lda     #<(_marathon_man_alan7_data)
	jmp     L24F2
;
; case 8: pointer = marathon_man_alan8_data; break;
;
L239E:	lda     #>(_marathon_man_alan8_data)
	sta     _pointer+1
	lda     #<(_marathon_man_alan8_data)
	jmp     L24F2
;
; case 9: pointer = marathon_man_alan9_data; break;
;
L23A2:	lda     #>(_marathon_man_alan9_data)
	sta     _pointer+1
	lda     #<(_marathon_man_alan9_data)
	jmp     L24F2
;
; case 10: pointer = marathon_man_alan10_data; break;
;
L23A6:	lda     #>(_marathon_man_alan10_data)
	sta     _pointer+1
	lda     #<(_marathon_man_alan10_data)
	jmp     L24F2
;
; case 11: pointer = marathon_man_alan11_data; break;
;
L23AA:	lda     #>(_marathon_man_alan11_data)
	sta     _pointer+1
	lda     #<(_marathon_man_alan11_data)
	jmp     L24F2
;
; case 12: pointer = marathon_man_alan12_data; break;
;
L23AE:	lda     #>(_marathon_man_alan12_data)
	sta     _pointer+1
	lda     #<(_marathon_man_alan12_data)
	jmp     L24F2
;
; case 13: pointer = marathon_man_alan13_data; break;
;
L23B2:	lda     #>(_marathon_man_alan13_data)
	sta     _pointer+1
	lda     #<(_marathon_man_alan13_data)
	jmp     L24F2
;
; case 14: pointer = marathon_man_alan14_data; break;
;
L23B6:	lda     #>(_marathon_man_alan14_data)
	sta     _pointer+1
	lda     #<(_marathon_man_alan14_data)
	jmp     L24F2
;
; case 15: pointer = marathon_man_alan15_data; break;
;
L23BA:	lda     #>(_marathon_man_alan15_data)
	sta     _pointer+1
	lda     #<(_marathon_man_alan15_data)
	jmp     L24F2
;
; case 16: pointer = marathon_man_alan16_data; break;
;
L23BE:	lda     #>(_marathon_man_alan16_data)
	sta     _pointer+1
	lda     #<(_marathon_man_alan16_data)
	jmp     L24F2
;
; case 17: pointer = marathon_man_alan17_data; break;
;
L23C2:	lda     #>(_marathon_man_alan17_data)
	sta     _pointer+1
	lda     #<(_marathon_man_alan17_data)
	jmp     L24F2
;
; case 18: pointer = marathon_man_alan18_data; break;
;
L23C6:	lda     #>(_marathon_man_alan18_data)
	sta     _pointer+1
	lda     #<(_marathon_man_alan18_data)
	jmp     L24F2
;
; case 19: pointer = marathon_man_alan19_data; break;
;
L23CA:	lda     #>(_marathon_man_alan19_data)
	sta     _pointer+1
	lda     #<(_marathon_man_alan19_data)
	jmp     L24F2
;
; case 20: pointer = marathon_man_alan20_data; break;
;
L23CE:	lda     #>(_marathon_man_alan20_data)
	sta     _pointer+1
	lda     #<(_marathon_man_alan20_data)
	jmp     L24F2
;
; case 21: pointer = marathon_man_alan21_data; break;
;
L23D2:	lda     #>(_marathon_man_alan21_data)
	sta     _pointer+1
	lda     #<(_marathon_man_alan21_data)
	jmp     L24F2
;
; case 22: pointer = marathon_man_alan22_data; break;
;
L23D6:	lda     #>(_marathon_man_alan22_data)
	sta     _pointer+1
	lda     #<(_marathon_man_alan22_data)
	jmp     L24F2
;
; case 23: pointer = marathon_man_alan23_data; break;
;
L23DA:	lda     #>(_marathon_man_alan23_data)
	sta     _pointer+1
	lda     #<(_marathon_man_alan23_data)
	jmp     L24F2
;
; case 24: pointer = marathon_man_alan24_data; break;
;
L23DE:	lda     #>(_marathon_man_alan24_data)
	sta     _pointer+1
	lda     #<(_marathon_man_alan24_data)
	jmp     L24F2
;
; case 25: pointer = marathon_man_alan25_data; break;
;
L23E2:	lda     #>(_marathon_man_alan25_data)
	sta     _pointer+1
	lda     #<(_marathon_man_alan25_data)
	jmp     L24F2
;
; case 26: pointer = marathon_man_alan26_data; break;
;
L23E6:	lda     #>(_marathon_man_alan26_data)
	sta     _pointer+1
	lda     #<(_marathon_man_alan26_data)
	jmp     L24F2
;
; case 27: pointer = marathon_man_alan27_data; break;
;
L23EA:	lda     #>(_marathon_man_alan27_data)
	sta     _pointer+1
	lda     #<(_marathon_man_alan27_data)
	jmp     L24F2
;
; case 28: pointer = marathon_man_alan28_data; break;
;
L23EE:	lda     #>(_marathon_man_alan28_data)
	sta     _pointer+1
	lda     #<(_marathon_man_alan28_data)
	jmp     L24F2
;
; case 29: pointer = marathon_man_alan29_data; break;
;
L23F2:	lda     #>(_marathon_man_alan29_data)
	sta     _pointer+1
	lda     #<(_marathon_man_alan29_data)
	jmp     L24F2
;
; case 30: pointer = marathon_man_alan30_data; break;
;
L23F6:	lda     #>(_marathon_man_alan30_data)
	sta     _pointer+1
	lda     #<(_marathon_man_alan30_data)
	jmp     L24F2
;
; case 31: pointer = marathon_man_alan31_data; break;
;
L23FA:	lda     #>(_marathon_man_alan31_data)
	sta     _pointer+1
	lda     #<(_marathon_man_alan31_data)
	jmp     L24F2
;
; case 32: pointer = marathon_man_alan32_data; break;
;
L23FE:	lda     #>(_marathon_man_alan32_data)
	sta     _pointer+1
	lda     #<(_marathon_man_alan32_data)
	jmp     L24F2
;
; case 33: pointer = marathon_man_alan33_data; break;
;
L2402:	lda     #>(_marathon_man_alan33_data)
	sta     _pointer+1
	lda     #<(_marathon_man_alan33_data)
	jmp     L24F2
;
; case 34: pointer = marathon_man_alan34_data; break;
;
L2406:	lda     #>(_marathon_man_alan34_data)
	sta     _pointer+1
	lda     #<(_marathon_man_alan34_data)
	jmp     L24F2
;
; case 35: pointer = marathon_man_alan35_data; break;
;
L240A:	lda     #>(_marathon_man_alan35_data)
	sta     _pointer+1
	lda     #<(_marathon_man_alan35_data)
	jmp     L24F2
;
; case 36: pointer = marathon_man_alan36_data; break;
;
L240E:	lda     #>(_marathon_man_alan36_data)
	sta     _pointer+1
	lda     #<(_marathon_man_alan36_data)
	jmp     L24F2
;
; case 37: pointer = marathon_man_alan37_data; break;
;
L2412:	lda     #>(_marathon_man_alan37_data)
	sta     _pointer+1
	lda     #<(_marathon_man_alan37_data)
	jmp     L24F2
;
; case 38: pointer = marathon_man_alan38_data; break;
;
L2416:	lda     #>(_marathon_man_alan38_data)
	sta     _pointer+1
	lda     #<(_marathon_man_alan38_data)
	jmp     L24F2
;
; case 39: pointer = marathon_man_alan39_data; break;
;
L241A:	lda     #>(_marathon_man_alan39_data)
	sta     _pointer+1
	lda     #<(_marathon_man_alan39_data)
	jmp     L24F2
;
; case 40: pointer = marathon_man_alan40_data; break;
;
L241E:	lda     #>(_marathon_man_alan40_data)
	sta     _pointer+1
	lda     #<(_marathon_man_alan40_data)
	jmp     L24F2
;
; case 41: pointer = marathon_man_alan41_data; break;
;
L2422:	lda     #>(_marathon_man_alan41_data)
	sta     _pointer+1
	lda     #<(_marathon_man_alan41_data)
	jmp     L24F2
;
; case 42: pointer = marathon_man_alan42_data; break;
;
L2426:	lda     #>(_marathon_man_alan42_data)
	sta     _pointer+1
	lda     #<(_marathon_man_alan42_data)
	jmp     L24F2
;
; case 43: pointer = marathon_man_alan43_data; break;
;
L242A:	lda     #>(_marathon_man_alan43_data)
	sta     _pointer+1
	lda     #<(_marathon_man_alan43_data)
	jmp     L24F2
;
; case 44: pointer = marathon_man_alan44_data; break;
;
L242E:	lda     #>(_marathon_man_alan44_data)
	sta     _pointer+1
	lda     #<(_marathon_man_alan44_data)
	jmp     L24F2
;
; case 45: pointer = marathon_man_alan45_data; break;
;
L2432:	lda     #>(_marathon_man_alan45_data)
	sta     _pointer+1
	lda     #<(_marathon_man_alan45_data)
	jmp     L24F2
;
; case 46: pointer = marathon_man_alan46_data; break;
;
L2436:	lda     #>(_marathon_man_alan46_data)
	sta     _pointer+1
	lda     #<(_marathon_man_alan46_data)
	jmp     L24F2
;
; case 47: pointer = marathon_man_alan47_data; break;
;
L243A:	lda     #>(_marathon_man_alan47_data)
	sta     _pointer+1
	lda     #<(_marathon_man_alan47_data)
	jmp     L24F2
;
; case 48: pointer = marathon_man_alan48_data; break;
;
L243E:	lda     #>(_marathon_man_alan48_data)
	sta     _pointer+1
	lda     #<(_marathon_man_alan48_data)
	jmp     L24F2
;
; case 49: pointer = marathon_man_alan49_data; break;
;
L2442:	lda     #>(_marathon_man_alan49_data)
	sta     _pointer+1
	lda     #<(_marathon_man_alan49_data)
	jmp     L24F2
;
; case 50: pointer = marathon_man_alan50_data; break;
;
L2446:	lda     #>(_marathon_man_alan50_data)
	sta     _pointer+1
	lda     #<(_marathon_man_alan50_data)
	jmp     L24F2
;
; case 51: pointer = marathon_man_alan51_data; break;
;
L244A:	lda     #>(_marathon_man_alan51_data)
	sta     _pointer+1
	lda     #<(_marathon_man_alan51_data)
	jmp     L24F2
;
; case 52: pointer = marathon_man_alan52_data; break;
;
L244E:	lda     #>(_marathon_man_alan52_data)
	sta     _pointer+1
	lda     #<(_marathon_man_alan52_data)
	jmp     L24F2
;
; case 53: pointer = marathon_man_alan53_data; break;
;
L2452:	lda     #>(_marathon_man_alan53_data)
	sta     _pointer+1
	lda     #<(_marathon_man_alan53_data)
	jmp     L24F2
;
; default: pointer = marathon_man_alan54_data; break;
;
L2459:	lda     #>(_marathon_man_alan54_data)
	sta     _pointer+1
	lda     #<(_marathon_man_alan54_data)
L24F2:	sta     _pointer
;
; oam_meta_spr(40, 10, pointer);
;
	jsr     decsp2
	lda     #$28
	ldy     #$01
	sta     (sp),y
	lda     #$0A
	dey
	sta     (sp),y
	lda     _pointer
	ldx     _pointer+1
	jmp     _oam_meta_spr

.endproc

; ---------------------------------------------------------------
; void __near__ process_powerpad (void)
; ---------------------------------------------------------------

.segment	"CODE"

.proc	_process_powerpad: near

.segment	"CODE"

;
; powerpad_new = (powerpad_cur^powerpad_old)&powerpad_cur;
;
	lda     _powerpad_old
	eor     _powerpad_cur
	sta     ptr1
	lda     _powerpad_old+1
	eor     _powerpad_cur+1
	sta     ptr1+1
	lda     _powerpad_cur
	and     ptr1
	sta     _powerpad_new
	lda     _powerpad_cur+1
	and     ptr1+1
	sta     _powerpad_new+1
;
; powerpad_old = powerpad_cur;
;
	lda     _powerpad_cur+1
	sta     _powerpad_old+1
	lda     _powerpad_cur
	sta     _powerpad_old
;
; } 
;
	rts

.endproc

; ---------------------------------------------------------------
; void __near__ main (void)
; ---------------------------------------------------------------

.segment	"CODE"

.proc	_main: near

.segment	"CODE"

;
; clear_vram_buffer(); 
;
	jsr     _clear_vram_buffer
;
; set_vram_buffer();
;
	jsr     _set_vram_buffer
;
; ppu_off(); // screen off
;
	jsr     _ppu_off
;
; bank_spr(1);
;
	lda     #$01
	jsr     _bank_spr
;
; game_mode = MODE_TITLE;
;
	lda     #$00
	sta     _game_mode
;
; load_title();
;
	jsr     _load_title
;
; ppu_on_all(); // turn on screen
;
	jsr     _ppu_on_all
;
; while(game_mode == MODE_TITLE){
;
	jmp     L24F5
;
; ppu_wait_nmi();
;
L1FCB:	jsr     _ppu_wait_nmi
;
; ++title_frame_counter;
;
	inc     _title_frame_counter
;
; if(title_frame_counter >= 4){
;
	lda     _title_frame_counter
	cmp     #$04
	bcc     L1FD5
;
; title_frame_counter = 0;
;
	lda     #$00
	sta     _title_frame_counter
;
; if(title_animation_frame <= 54){
;
	lda     _title_animation_frame
	cmp     #$37
	bcs     L1FD5
;
; ++title_animation_frame;
;
	inc     _title_animation_frame
;
; oam_clear();
;
L1FD5:	jsr     _oam_clear
;
; set_signature_sprite();
;
	jsr     _set_signature_sprite
;
; debug_controller = pad_poll(0);
;
	lda     #$00
	jsr     _pad_poll
	sta     _debug_controller
;
; debug_controller_new = get_pad_new(0);
;
	lda     #$00
	jsr     _get_pad_new
	sta     _debug_controller_new
;
; if(debug_controller_new & PAD_START){
;
	and     #$10
	beq     L24F5
;
; init_options();
;
	jsr     _init_options
;
; while(game_mode == MODE_TITLE){
;
L24F5:	lda     _game_mode
	beq     L1FCB
;
; while(game_mode == MODE_OPTIONS){
;
	jmp     L24F9
;
; ppu_wait_nmi();
;
L1FE3:	jsr     _ppu_wait_nmi
;
; draw_options_screen();
;
	jsr     _draw_options_screen
;
; debug_controller = pad_poll(0);
;
	lda     #$00
	jsr     _pad_poll
	sta     _debug_controller
;
; debug_controller_new = get_pad_new(0);
;
	lda     #$00
	jsr     _get_pad_new
	sta     _debug_controller_new
;
; if(debug_controller_new & PAD_UP){
;
	and     #$08
	beq     L24F6
;
; if(selected_option > 0) --selected_option;
;
	lda     _selected_option
	beq     L24F6
	dec     _selected_option
;
; if(debug_controller_new & PAD_DOWN){
;
L24F6:	lda     _debug_controller_new
	and     #$04
	beq     L24F7
;
; if(selected_option < 2) ++selected_option;
;
	lda     _selected_option
	cmp     #$02
	bcs     L24F7
	inc     _selected_option
;
; if(debug_controller_new & PAD_START || debug_controller_new & PAD_A){
;
L24F7:	lda     _debug_controller_new
	and     #$10
	bne     L24F8
	lda     _debug_controller_new
	and     #$80
	beq     L24F9
;
; race_type = selected_option;
;
L24F8:	lda     _selected_option
	sta     _race_type
;
; init_mode_game();
;
	jsr     _init_mode_game
;
; while(game_mode == MODE_OPTIONS){
;
L24F9:	lda     _game_mode
	cmp     #$01
	beq     L1FE3
;
; while(game_mode == MODE_GAME){
;
	jmp     L24FE
;
; ppu_wait_nmi(); // wait till beginning of the frame
;
L1FFF:	jsr     _ppu_wait_nmi
;
; set_sprite_zero();
;
	jsr     _set_sprite_zero
;
; split(scroll_x);
;
	lda     _scroll_x
	ldx     _scroll_x+1
	jsr     _split
;
; set_scroll_x(0);
;
	ldx     #$00
	txa
	jsr     _set_scroll_x
;
; set_scroll_y(0xff);
;
	ldx     #$00
	lda     #$FF
	jsr     _set_scroll_y
;
; ++frame_counter;
;
	inc     _frame_counter
;
; if(time_since_button_press < 255){
;
	lda     _time_since_button_press
	cmp     #$FF
	bcs     L200C
;
; ++time_since_button_press;
;
	inc     _time_since_button_press
;
; if(velocity > 4){
;
L200C:	lda     _velocity
	cmp     #$05
	lda     _velocity+1
	sbc     #$00
	lda     #$00
	bcc     L24FB
;
; velocity -= 4;
;
	lda     _velocity
	sec
	sbc     #$04
	sta     _velocity
	bcs     L2014
	dec     _velocity+1
;
; } else {
;
	jmp     L2014
;
; velocity = 0;
;
L24FB:	sta     _velocity
	sta     _velocity+1
;
; scroll_subpixel += velocity;
;
L2014:	lda     _velocity
	clc
	adc     _scroll_subpixel
	sta     _scroll_subpixel
	lda     _velocity+1
	adc     _scroll_subpixel+1
	sta     _scroll_subpixel+1
;
; scroll_x = (scroll_subpixel >> 8);
;
	ldx     #$00
	lda     _scroll_subpixel+1
	sta     _scroll_x
	stx     _scroll_x+1
;
; if(step_button_lockout > 0){
;
	lda     _step_button_lockout
	beq     L24FC
;
; --step_button_lockout;
;
	dec     _step_button_lockout
;
; if(frame_counter >= 60){
;
L24FC:	lda     _frame_counter
	cmp     #$3C
	txa
	bcc     L24FD
;
; frame_counter = 0;
;
	sta     _frame_counter
;
; add_second();
;
	jsr     _add_second
;
; debug_controller = pad_poll(0); //for debugging only
;
	lda     #$00
L24FD:	jsr     _pad_poll
	sta     _debug_controller
;
; debug_controller_new = get_pad_new(0);  
;
	lda     #$00
	jsr     _get_pad_new
	sta     _debug_controller_new
;
; powerpad_cur = read_powerpad(1);
;
	lda     #$01
	jsr     _read_powerpad
	sta     _powerpad_cur
	stx     _powerpad_cur+1
;
; process_powerpad(); // goes after the read
;
	jsr     _process_powerpad
;
; check_motion();
;
	jsr     _check_motion
;
; draw_sprite();
;
	jsr     _draw_sprite
;
; draw_hud();
;
	jsr     _draw_hud
;
; process_controller();
;
	jsr     _process_controller
;
; if(steps >= total_steps_needed){
;
	lda     _steps
	cmp     _total_steps_needed
	lda     _steps+1
	sbc     _total_steps_needed+1
	bcc     L24FE
;
; init_win_screen();
;
	jsr     _init_win_screen
;
; break;
;
	jmp     L2500
;
; while(game_mode == MODE_GAME){
;
L24FE:	lda     _game_mode
	cmp     #$02
	jeq     L1FFF
;
; while(game_mode == MODE_WIN){
;
	jmp     L2500
;
; ppu_wait_nmi();
;
L2035:	jsr     _ppu_wait_nmi
;
; oam_clear();
;
	jsr     _oam_clear
;
; debug_controller = pad_poll(0);
;
	lda     #$00
	jsr     _pad_poll
	sta     _debug_controller
;
; debug_controller_new = get_pad_new(0);
;
	lda     #$00
	jsr     _get_pad_new
	sta     _debug_controller_new
;
; if((debug_controller_new & PAD_START) || (debug_controller_new & PAD_A)){
;
	and     #$10
	bne     L24FF
	lda     _debug_controller_new
	and     #$80
	beq     L2500
;
; load_title();
;
L24FF:	jsr     _load_title
;
; while(game_mode == MODE_WIN){
;
L2500:	lda     _game_mode
	cmp     #$03
	beq     L2035
;
; while (1){
;
	jmp     L24F5

.endproc

; ---------------------------------------------------------------
; void __near__ clear_background (void)
; ---------------------------------------------------------------

.segment	"CODE"

.proc	_clear_background: near

.segment	"CODE"

;
; vram_adr(NAMETABLE_A);
;
	ldx     #$20
	lda     #$00
	jsr     _vram_adr
;
; for (largeindex = 0; largeindex < 1024; ++largeindex)
;
	lda     #$00
	sta     _largeindex
	sta     _largeindex+1
L2484:	ldx     _largeindex+1
	cpx     #$04
	bcs     L2485
;
; vram_put(0x00);
;
	lda     #$00
	jsr     _vram_put
;
; flush_vram_update2();
;
	jsr     _flush_vram_update2
;
; for (largeindex = 0; largeindex < 1024; ++largeindex)
;
	inc     _largeindex
	bne     L2484
	inc     _largeindex+1
	jmp     L2484
;
; }
;
L2485:	rts

.endproc

